
build/blink.elf:     file format elf32-littlearm


Disassembly of section .text:

0800024c <delay_ms>:
 800024c:	b480      	push	{r7}
 800024e:	b085      	sub	sp, #20
 8000250:	af00      	add	r7, sp, #0
 8000252:	6078      	str	r0, [r7, #4]
 8000254:	2300      	movs	r3, #0
 8000256:	60fb      	str	r3, [r7, #12]
 8000258:	e003      	b.n	8000262 <delay_ms+0x16>
 800025a:	bf00      	nop
 800025c:	68fb      	ldr	r3, [r7, #12]
 800025e:	3301      	adds	r3, #1
 8000260:	60fb      	str	r3, [r7, #12]
 8000262:	687b      	ldr	r3, [r7, #4]
 8000264:	f44f 527a 	mov.w	r2, #16000	@ 0x3e80
 8000268:	fb02 f303 	mul.w	r3, r2, r3
 800026c:	68fa      	ldr	r2, [r7, #12]
 800026e:	429a      	cmp	r2, r3
 8000270:	d3f3      	bcc.n	800025a <delay_ms+0xe>
 8000272:	bf00      	nop
 8000274:	bf00      	nop
 8000276:	3714      	adds	r7, #20
 8000278:	46bd      	mov	sp, r7
 800027a:	f85d 7b04 	ldr.w	r7, [sp], #4
 800027e:	4770      	bx	lr

08000280 <MX_GPIO_Init>:
 8000280:	b480      	push	{r7}
 8000282:	b087      	sub	sp, #28
 8000284:	af00      	add	r7, sp, #0
 8000286:	4b28      	ldr	r3, [pc, #160]	@ (8000328 <MX_GPIO_Init+0xa8>)
 8000288:	f8d3 308c 	ldr.w	r3, [r3, #140]	@ 0x8c
 800028c:	4a26      	ldr	r2, [pc, #152]	@ (8000328 <MX_GPIO_Init+0xa8>)
 800028e:	f043 0302 	orr.w	r3, r3, #2
 8000292:	f8c2 308c 	str.w	r3, [r2, #140]	@ 0x8c
 8000296:	4b24      	ldr	r3, [pc, #144]	@ (8000328 <MX_GPIO_Init+0xa8>)
 8000298:	f8d3 308c 	ldr.w	r3, [r3, #140]	@ 0x8c
 800029c:	f003 0302 	and.w	r3, r3, #2
 80002a0:	617b      	str	r3, [r7, #20]
 80002a2:	697b      	ldr	r3, [r7, #20]
 80002a4:	4b20      	ldr	r3, [pc, #128]	@ (8000328 <MX_GPIO_Init+0xa8>)
 80002a6:	f8d3 308c 	ldr.w	r3, [r3, #140]	@ 0x8c
 80002aa:	4a1f      	ldr	r2, [pc, #124]	@ (8000328 <MX_GPIO_Init+0xa8>)
 80002ac:	f043 0340 	orr.w	r3, r3, #64	@ 0x40
 80002b0:	f8c2 308c 	str.w	r3, [r2, #140]	@ 0x8c
 80002b4:	4b1c      	ldr	r3, [pc, #112]	@ (8000328 <MX_GPIO_Init+0xa8>)
 80002b6:	f8d3 308c 	ldr.w	r3, [r3, #140]	@ 0x8c
 80002ba:	f003 0340 	and.w	r3, r3, #64	@ 0x40
 80002be:	613b      	str	r3, [r7, #16]
 80002c0:	693b      	ldr	r3, [r7, #16]
 80002c2:	4b19      	ldr	r3, [pc, #100]	@ (8000328 <MX_GPIO_Init+0xa8>)
 80002c4:	f8d3 308c 	ldr.w	r3, [r3, #140]	@ 0x8c
 80002c8:	4a17      	ldr	r2, [pc, #92]	@ (8000328 <MX_GPIO_Init+0xa8>)
 80002ca:	f043 0320 	orr.w	r3, r3, #32
 80002ce:	f8c2 308c 	str.w	r3, [r2, #140]	@ 0x8c
 80002d2:	4b15      	ldr	r3, [pc, #84]	@ (8000328 <MX_GPIO_Init+0xa8>)
 80002d4:	f8d3 308c 	ldr.w	r3, [r3, #140]	@ 0x8c
 80002d8:	f003 0320 	and.w	r3, r3, #32
 80002dc:	60fb      	str	r3, [r7, #12]
 80002de:	68fb      	ldr	r3, [r7, #12]
 80002e0:	4b11      	ldr	r3, [pc, #68]	@ (8000328 <MX_GPIO_Init+0xa8>)
 80002e2:	f8d3 308c 	ldr.w	r3, [r3, #140]	@ 0x8c
 80002e6:	4a10      	ldr	r2, [pc, #64]	@ (8000328 <MX_GPIO_Init+0xa8>)
 80002e8:	f043 0304 	orr.w	r3, r3, #4
 80002ec:	f8c2 308c 	str.w	r3, [r2, #140]	@ 0x8c
 80002f0:	4b0d      	ldr	r3, [pc, #52]	@ (8000328 <MX_GPIO_Init+0xa8>)
 80002f2:	f8d3 308c 	ldr.w	r3, [r3, #140]	@ 0x8c
 80002f6:	f003 0304 	and.w	r3, r3, #4
 80002fa:	60bb      	str	r3, [r7, #8]
 80002fc:	68bb      	ldr	r3, [r7, #8]
 80002fe:	4b0a      	ldr	r3, [pc, #40]	@ (8000328 <MX_GPIO_Init+0xa8>)
 8000300:	f8d3 308c 	ldr.w	r3, [r3, #140]	@ 0x8c
 8000304:	4a08      	ldr	r2, [pc, #32]	@ (8000328 <MX_GPIO_Init+0xa8>)
 8000306:	f043 0301 	orr.w	r3, r3, #1
 800030a:	f8c2 308c 	str.w	r3, [r2, #140]	@ 0x8c
 800030e:	4b06      	ldr	r3, [pc, #24]	@ (8000328 <MX_GPIO_Init+0xa8>)
 8000310:	f8d3 308c 	ldr.w	r3, [r3, #140]	@ 0x8c
 8000314:	f003 0301 	and.w	r3, r3, #1
 8000318:	607b      	str	r3, [r7, #4]
 800031a:	687b      	ldr	r3, [r7, #4]
 800031c:	bf00      	nop
 800031e:	371c      	adds	r7, #28
 8000320:	46bd      	mov	sp, r7
 8000322:	f85d 7b04 	ldr.w	r7, [sp], #4
 8000326:	4770      	bx	lr
 8000328:	44020c00 	.word	0x44020c00

0800032c <main>:
 800032c:	b580      	push	{r7, lr}
 800032e:	b086      	sub	sp, #24
 8000330:	af00      	add	r7, sp, #0
 8000332:	f7ff ffa5 	bl	8000280 <MX_GPIO_Init>
 8000336:	4b54      	ldr	r3, [pc, #336]	@ (8000488 <main+0x15c>)
 8000338:	f8d3 3094 	ldr.w	r3, [r3, #148]	@ 0x94
 800033c:	4a52      	ldr	r2, [pc, #328]	@ (8000488 <main+0x15c>)
 800033e:	f043 0302 	orr.w	r3, r3, #2
 8000342:	f8c2 3094 	str.w	r3, [r2, #148]	@ 0x94
 8000346:	4b50      	ldr	r3, [pc, #320]	@ (8000488 <main+0x15c>)
 8000348:	f8d3 3094 	ldr.w	r3, [r3, #148]	@ 0x94
 800034c:	4a4e      	ldr	r2, [pc, #312]	@ (8000488 <main+0x15c>)
 800034e:	f043 0340 	orr.w	r3, r3, #64	@ 0x40
 8000352:	f8c2 3094 	str.w	r3, [r2, #148]	@ 0x94
 8000356:	4b4c      	ldr	r3, [pc, #304]	@ (8000488 <main+0x15c>)
 8000358:	f8d3 3094 	ldr.w	r3, [r3, #148]	@ 0x94
 800035c:	4a4a      	ldr	r2, [pc, #296]	@ (8000488 <main+0x15c>)
 800035e:	f043 0320 	orr.w	r3, r3, #32
 8000362:	f8c2 3094 	str.w	r3, [r2, #148]	@ 0x94
 8000366:	4b49      	ldr	r3, [pc, #292]	@ (800048c <main+0x160>)
 8000368:	681b      	ldr	r3, [r3, #0]
 800036a:	4a48      	ldr	r2, [pc, #288]	@ (800048c <main+0x160>)
 800036c:	f423 6340 	bic.w	r3, r3, #3072	@ 0xc00
 8000370:	6013      	str	r3, [r2, #0]
 8000372:	4b46      	ldr	r3, [pc, #280]	@ (800048c <main+0x160>)
 8000374:	681b      	ldr	r3, [r3, #0]
 8000376:	4a45      	ldr	r2, [pc, #276]	@ (800048c <main+0x160>)
 8000378:	f443 6380 	orr.w	r3, r3, #1024	@ 0x400
 800037c:	6013      	str	r3, [r2, #0]
 800037e:	4b44      	ldr	r3, [pc, #272]	@ (8000490 <main+0x164>)
 8000380:	681b      	ldr	r3, [r3, #0]
 8000382:	4a43      	ldr	r2, [pc, #268]	@ (8000490 <main+0x164>)
 8000384:	f423 6340 	bic.w	r3, r3, #3072	@ 0xc00
 8000388:	6013      	str	r3, [r2, #0]
 800038a:	4b41      	ldr	r3, [pc, #260]	@ (8000490 <main+0x164>)
 800038c:	681b      	ldr	r3, [r3, #0]
 800038e:	4a40      	ldr	r2, [pc, #256]	@ (8000490 <main+0x164>)
 8000390:	f443 6380 	orr.w	r3, r3, #1024	@ 0x400
 8000394:	6013      	str	r3, [r2, #0]
 8000396:	4b3f      	ldr	r3, [pc, #252]	@ (8000494 <main+0x168>)
 8000398:	681b      	ldr	r3, [r3, #0]
 800039a:	4a3e      	ldr	r2, [pc, #248]	@ (8000494 <main+0x168>)
 800039c:	f423 6340 	bic.w	r3, r3, #3072	@ 0xc00
 80003a0:	6013      	str	r3, [r2, #0]
 80003a2:	4b3c      	ldr	r3, [pc, #240]	@ (8000494 <main+0x168>)
 80003a4:	681b      	ldr	r3, [r3, #0]
 80003a6:	4a3b      	ldr	r2, [pc, #236]	@ (8000494 <main+0x168>)
 80003a8:	f443 6380 	orr.w	r3, r3, #1024	@ 0x400
 80003ac:	6013      	str	r3, [r2, #0]
 80003ae:	4b37      	ldr	r3, [pc, #220]	@ (800048c <main+0x160>)
 80003b0:	681b      	ldr	r3, [r3, #0]
 80003b2:	4a36      	ldr	r2, [pc, #216]	@ (800048c <main+0x160>)
 80003b4:	f023 0303 	bic.w	r3, r3, #3
 80003b8:	6013      	str	r3, [r2, #0]
 80003ba:	4b34      	ldr	r3, [pc, #208]	@ (800048c <main+0x160>)
 80003bc:	681b      	ldr	r3, [r3, #0]
 80003be:	4a33      	ldr	r2, [pc, #204]	@ (800048c <main+0x160>)
 80003c0:	f043 0301 	orr.w	r3, r3, #1
 80003c4:	6013      	str	r3, [r2, #0]
 80003c6:	4b33      	ldr	r3, [pc, #204]	@ (8000494 <main+0x168>)
 80003c8:	681b      	ldr	r3, [r3, #0]
 80003ca:	4a32      	ldr	r2, [pc, #200]	@ (8000494 <main+0x168>)
 80003cc:	f423 7340 	bic.w	r3, r3, #768	@ 0x300
 80003d0:	6013      	str	r3, [r2, #0]
 80003d2:	4b30      	ldr	r3, [pc, #192]	@ (8000494 <main+0x168>)
 80003d4:	681b      	ldr	r3, [r3, #0]
 80003d6:	4a2f      	ldr	r2, [pc, #188]	@ (8000494 <main+0x168>)
 80003d8:	f443 7380 	orr.w	r3, r3, #256	@ 0x100
 80003dc:	6013      	str	r3, [r2, #0]
 80003de:	4b2c      	ldr	r3, [pc, #176]	@ (8000490 <main+0x164>)
 80003e0:	681b      	ldr	r3, [r3, #0]
 80003e2:	4a2b      	ldr	r2, [pc, #172]	@ (8000490 <main+0x164>)
 80003e4:	f423 7340 	bic.w	r3, r3, #768	@ 0x300
 80003e8:	6013      	str	r3, [r2, #0]
 80003ea:	4b29      	ldr	r3, [pc, #164]	@ (8000490 <main+0x164>)
 80003ec:	681b      	ldr	r3, [r3, #0]
 80003ee:	4a28      	ldr	r2, [pc, #160]	@ (8000490 <main+0x164>)
 80003f0:	f443 7380 	orr.w	r3, r3, #256	@ 0x100
 80003f4:	6013      	str	r3, [r2, #0]
 80003f6:	4b25      	ldr	r3, [pc, #148]	@ (800048c <main+0x160>)
 80003f8:	685b      	ldr	r3, [r3, #4]
 80003fa:	4a24      	ldr	r2, [pc, #144]	@ (800048c <main+0x160>)
 80003fc:	f023 0301 	bic.w	r3, r3, #1
 8000400:	6053      	str	r3, [r2, #4]
 8000402:	4b22      	ldr	r3, [pc, #136]	@ (800048c <main+0x160>)
 8000404:	689b      	ldr	r3, [r3, #8]
 8000406:	4a21      	ldr	r2, [pc, #132]	@ (800048c <main+0x160>)
 8000408:	f043 0303 	orr.w	r3, r3, #3
 800040c:	6093      	str	r3, [r2, #8]
 800040e:	4b1f      	ldr	r3, [pc, #124]	@ (800048c <main+0x160>)
 8000410:	68db      	ldr	r3, [r3, #12]
 8000412:	4a1e      	ldr	r2, [pc, #120]	@ (800048c <main+0x160>)
 8000414:	f023 0303 	bic.w	r3, r3, #3
 8000418:	60d3      	str	r3, [r2, #12]
 800041a:	2301      	movs	r3, #1
 800041c:	607b      	str	r3, [r7, #4]
 800041e:	2301      	movs	r3, #1
 8000420:	60bb      	str	r3, [r7, #8]
 8000422:	2300      	movs	r3, #0
 8000424:	60fb      	str	r3, [r7, #12]
 8000426:	2303      	movs	r3, #3
 8000428:	613b      	str	r3, [r7, #16]
 800042a:	1d3b      	adds	r3, r7, #4
 800042c:	4619      	mov	r1, r3
 800042e:	4817      	ldr	r0, [pc, #92]	@ (800048c <main+0x160>)
 8000430:	f000 fef6 	bl	8001220 <HAL_GPIO_Init>
 8000434:	4b15      	ldr	r3, [pc, #84]	@ (800048c <main+0x160>)
 8000436:	695b      	ldr	r3, [r3, #20]
 8000438:	4a14      	ldr	r2, [pc, #80]	@ (800048c <main+0x160>)
 800043a:	f083 0320 	eor.w	r3, r3, #32
 800043e:	6153      	str	r3, [r2, #20]
 8000440:	4b13      	ldr	r3, [pc, #76]	@ (8000490 <main+0x164>)
 8000442:	695b      	ldr	r3, [r3, #20]
 8000444:	4a12      	ldr	r2, [pc, #72]	@ (8000490 <main+0x164>)
 8000446:	f083 0320 	eor.w	r3, r3, #32
 800044a:	6153      	str	r3, [r2, #20]
 800044c:	4b11      	ldr	r3, [pc, #68]	@ (8000494 <main+0x168>)
 800044e:	695b      	ldr	r3, [r3, #20]
 8000450:	4a10      	ldr	r2, [pc, #64]	@ (8000494 <main+0x168>)
 8000452:	f083 0320 	eor.w	r3, r3, #32
 8000456:	6153      	str	r3, [r2, #20]
 8000458:	4b0c      	ldr	r3, [pc, #48]	@ (800048c <main+0x160>)
 800045a:	695b      	ldr	r3, [r3, #20]
 800045c:	4a0b      	ldr	r2, [pc, #44]	@ (800048c <main+0x160>)
 800045e:	f083 0301 	eor.w	r3, r3, #1
 8000462:	6153      	str	r3, [r2, #20]
 8000464:	4b0b      	ldr	r3, [pc, #44]	@ (8000494 <main+0x168>)
 8000466:	695b      	ldr	r3, [r3, #20]
 8000468:	4a0a      	ldr	r2, [pc, #40]	@ (8000494 <main+0x168>)
 800046a:	f083 0310 	eor.w	r3, r3, #16
 800046e:	6153      	str	r3, [r2, #20]
 8000470:	4b07      	ldr	r3, [pc, #28]	@ (8000490 <main+0x164>)
 8000472:	695b      	ldr	r3, [r3, #20]
 8000474:	4a06      	ldr	r2, [pc, #24]	@ (8000490 <main+0x164>)
 8000476:	f083 0310 	eor.w	r3, r3, #16
 800047a:	6153      	str	r3, [r2, #20]
 800047c:	2064      	movs	r0, #100	@ 0x64
 800047e:	f7ff fee5 	bl	800024c <delay_ms>
 8000482:	bf00      	nop
 8000484:	e7d6      	b.n	8000434 <main+0x108>
 8000486:	bf00      	nop
 8000488:	44020c00 	.word	0x44020c00
 800048c:	42020400 	.word	0x42020400
 8000490:	42021800 	.word	0x42021800
 8000494:	42021400 	.word	0x42021400

08000498 <__libc_init_array>:
 8000498:	b480      	push	{r7}
 800049a:	af00      	add	r7, sp, #0
 800049c:	bf00      	nop
 800049e:	46bd      	mov	sp, r7
 80004a0:	f85d 7b04 	ldr.w	r7, [sp], #4
 80004a4:	4770      	bx	lr
 80004a6:	bf00      	nop

080004a8 <SystemInit>:
 80004a8:	b480      	push	{r7}
 80004aa:	b083      	sub	sp, #12
 80004ac:	af00      	add	r7, sp, #0
 80004ae:	4b35      	ldr	r3, [pc, #212]	@ (8000584 <SystemInit+0xdc>)
 80004b0:	f8d3 3088 	ldr.w	r3, [r3, #136]	@ 0x88
 80004b4:	4a33      	ldr	r2, [pc, #204]	@ (8000584 <SystemInit+0xdc>)
 80004b6:	f443 0370 	orr.w	r3, r3, #15728640	@ 0xf00000
 80004ba:	f8c2 3088 	str.w	r3, [r2, #136]	@ 0x88
 80004be:	4b32      	ldr	r3, [pc, #200]	@ (8000588 <SystemInit+0xe0>)
 80004c0:	2201      	movs	r2, #1
 80004c2:	601a      	str	r2, [r3, #0]
 80004c4:	4b30      	ldr	r3, [pc, #192]	@ (8000588 <SystemInit+0xe0>)
 80004c6:	2200      	movs	r2, #0
 80004c8:	61da      	str	r2, [r3, #28]
 80004ca:	4b2f      	ldr	r3, [pc, #188]	@ (8000588 <SystemInit+0xe0>)
 80004cc:	2200      	movs	r2, #0
 80004ce:	621a      	str	r2, [r3, #32]
 80004d0:	4b2d      	ldr	r3, [pc, #180]	@ (8000588 <SystemInit+0xe0>)
 80004d2:	681a      	ldr	r2, [r3, #0]
 80004d4:	492c      	ldr	r1, [pc, #176]	@ (8000588 <SystemInit+0xe0>)
 80004d6:	4b2d      	ldr	r3, [pc, #180]	@ (800058c <SystemInit+0xe4>)
 80004d8:	4013      	ands	r3, r2
 80004da:	600b      	str	r3, [r1, #0]
 80004dc:	4b2a      	ldr	r3, [pc, #168]	@ (8000588 <SystemInit+0xe0>)
 80004de:	2200      	movs	r2, #0
 80004e0:	629a      	str	r2, [r3, #40]	@ 0x28
 80004e2:	4b29      	ldr	r3, [pc, #164]	@ (8000588 <SystemInit+0xe0>)
 80004e4:	2200      	movs	r2, #0
 80004e6:	62da      	str	r2, [r3, #44]	@ 0x2c
 80004e8:	4b27      	ldr	r3, [pc, #156]	@ (8000588 <SystemInit+0xe0>)
 80004ea:	2200      	movs	r2, #0
 80004ec:	631a      	str	r2, [r3, #48]	@ 0x30
 80004ee:	4b26      	ldr	r3, [pc, #152]	@ (8000588 <SystemInit+0xe0>)
 80004f0:	4a27      	ldr	r2, [pc, #156]	@ (8000590 <SystemInit+0xe8>)
 80004f2:	635a      	str	r2, [r3, #52]	@ 0x34
 80004f4:	4b24      	ldr	r3, [pc, #144]	@ (8000588 <SystemInit+0xe0>)
 80004f6:	2200      	movs	r2, #0
 80004f8:	639a      	str	r2, [r3, #56]	@ 0x38
 80004fa:	4b23      	ldr	r3, [pc, #140]	@ (8000588 <SystemInit+0xe0>)
 80004fc:	4a24      	ldr	r2, [pc, #144]	@ (8000590 <SystemInit+0xe8>)
 80004fe:	63da      	str	r2, [r3, #60]	@ 0x3c
 8000500:	4b21      	ldr	r3, [pc, #132]	@ (8000588 <SystemInit+0xe0>)
 8000502:	2200      	movs	r2, #0
 8000504:	641a      	str	r2, [r3, #64]	@ 0x40
 8000506:	4b20      	ldr	r3, [pc, #128]	@ (8000588 <SystemInit+0xe0>)
 8000508:	4a21      	ldr	r2, [pc, #132]	@ (8000590 <SystemInit+0xe8>)
 800050a:	645a      	str	r2, [r3, #68]	@ 0x44
 800050c:	4b1e      	ldr	r3, [pc, #120]	@ (8000588 <SystemInit+0xe0>)
 800050e:	2200      	movs	r2, #0
 8000510:	649a      	str	r2, [r3, #72]	@ 0x48
 8000512:	4b1d      	ldr	r3, [pc, #116]	@ (8000588 <SystemInit+0xe0>)
 8000514:	681b      	ldr	r3, [r3, #0]
 8000516:	4a1c      	ldr	r2, [pc, #112]	@ (8000588 <SystemInit+0xe0>)
 8000518:	f423 2380 	bic.w	r3, r3, #262144	@ 0x40000
 800051c:	6013      	str	r3, [r2, #0]
 800051e:	4b1a      	ldr	r3, [pc, #104]	@ (8000588 <SystemInit+0xe0>)
 8000520:	2200      	movs	r2, #0
 8000522:	651a      	str	r2, [r3, #80]	@ 0x50
 8000524:	4b17      	ldr	r3, [pc, #92]	@ (8000584 <SystemInit+0xdc>)
 8000526:	f04f 6200 	mov.w	r2, #134217728	@ 0x8000000
 800052a:	609a      	str	r2, [r3, #8]
 800052c:	4b19      	ldr	r3, [pc, #100]	@ (8000594 <SystemInit+0xec>)
 800052e:	699b      	ldr	r3, [r3, #24]
 8000530:	f003 4360 	and.w	r3, r3, #3758096384	@ 0xe0000000
 8000534:	607b      	str	r3, [r7, #4]
 8000536:	687b      	ldr	r3, [r7, #4]
 8000538:	f1b3 4f60 	cmp.w	r3, #3758096384	@ 0xe0000000
 800053c:	d003      	beq.n	8000546 <SystemInit+0x9e>
 800053e:	687b      	ldr	r3, [r7, #4]
 8000540:	f1b3 4f40 	cmp.w	r3, #3221225472	@ 0xc0000000
 8000544:	d117      	bne.n	8000576 <SystemInit+0xce>
 8000546:	4b13      	ldr	r3, [pc, #76]	@ (8000594 <SystemInit+0xec>)
 8000548:	69db      	ldr	r3, [r3, #28]
 800054a:	f003 0301 	and.w	r3, r3, #1
 800054e:	2b00      	cmp	r3, #0
 8000550:	d005      	beq.n	800055e <SystemInit+0xb6>
 8000552:	4b10      	ldr	r3, [pc, #64]	@ (8000594 <SystemInit+0xec>)
 8000554:	4a10      	ldr	r2, [pc, #64]	@ (8000598 <SystemInit+0xf0>)
 8000556:	60da      	str	r2, [r3, #12]
 8000558:	4b0e      	ldr	r3, [pc, #56]	@ (8000594 <SystemInit+0xec>)
 800055a:	4a10      	ldr	r2, [pc, #64]	@ (800059c <SystemInit+0xf4>)
 800055c:	60da      	str	r2, [r3, #12]
 800055e:	4b0d      	ldr	r3, [pc, #52]	@ (8000594 <SystemInit+0xec>)
 8000560:	69db      	ldr	r3, [r3, #28]
 8000562:	4a0c      	ldr	r2, [pc, #48]	@ (8000594 <SystemInit+0xec>)
 8000564:	f043 0302 	orr.w	r3, r3, #2
 8000568:	61d3      	str	r3, [r2, #28]
 800056a:	4b0a      	ldr	r3, [pc, #40]	@ (8000594 <SystemInit+0xec>)
 800056c:	69db      	ldr	r3, [r3, #28]
 800056e:	4a09      	ldr	r2, [pc, #36]	@ (8000594 <SystemInit+0xec>)
 8000570:	f043 0301 	orr.w	r3, r3, #1
 8000574:	61d3      	str	r3, [r2, #28]
 8000576:	bf00      	nop
 8000578:	370c      	adds	r7, #12
 800057a:	46bd      	mov	sp, r7
 800057c:	f85d 7b04 	ldr.w	r7, [sp], #4
 8000580:	4770      	bx	lr
 8000582:	bf00      	nop
 8000584:	e000ed00 	.word	0xe000ed00
 8000588:	44020c00 	.word	0x44020c00
 800058c:	eae2eae3 	.word	0xeae2eae3
 8000590:	01010280 	.word	0x01010280
 8000594:	40022000 	.word	0x40022000
 8000598:	08192a3b 	.word	0x08192a3b
 800059c:	4c5d6e7f 	.word	0x4c5d6e7f

080005a0 <SystemCoreClockUpdate>:
 80005a0:	b480      	push	{r7}
 80005a2:	b089      	sub	sp, #36	@ 0x24
 80005a4:	af00      	add	r7, sp, #0
 80005a6:	4b90      	ldr	r3, [pc, #576]	@ (80007e8 <SystemCoreClockUpdate+0x248>)
 80005a8:	69db      	ldr	r3, [r3, #28]
 80005aa:	f003 0318 	and.w	r3, r3, #24
 80005ae:	2b18      	cmp	r3, #24
 80005b0:	f200 8102 	bhi.w	80007b8 <SystemCoreClockUpdate+0x218>
 80005b4:	a201      	add	r2, pc, #4	@ (adr r2, 80005bc <SystemCoreClockUpdate+0x1c>)
 80005b6:	f852 f023 	ldr.w	pc, [r2, r3, lsl #2]
 80005ba:	bf00      	nop
 80005bc:	08000621 	.word	0x08000621
 80005c0:	080007b9 	.word	0x080007b9
 80005c4:	080007b9 	.word	0x080007b9
 80005c8:	080007b9 	.word	0x080007b9
 80005cc:	080007b9 	.word	0x080007b9
 80005d0:	080007b9 	.word	0x080007b9
 80005d4:	080007b9 	.word	0x080007b9
 80005d8:	080007b9 	.word	0x080007b9
 80005dc:	08000637 	.word	0x08000637
 80005e0:	080007b9 	.word	0x080007b9
 80005e4:	080007b9 	.word	0x080007b9
 80005e8:	080007b9 	.word	0x080007b9
 80005ec:	080007b9 	.word	0x080007b9
 80005f0:	080007b9 	.word	0x080007b9
 80005f4:	080007b9 	.word	0x080007b9
 80005f8:	080007b9 	.word	0x080007b9
 80005fc:	0800063f 	.word	0x0800063f
 8000600:	080007b9 	.word	0x080007b9
 8000604:	080007b9 	.word	0x080007b9
 8000608:	080007b9 	.word	0x080007b9
 800060c:	080007b9 	.word	0x080007b9
 8000610:	080007b9 	.word	0x080007b9
 8000614:	080007b9 	.word	0x080007b9
 8000618:	080007b9 	.word	0x080007b9
 800061c:	08000647 	.word	0x08000647
 8000620:	4b71      	ldr	r3, [pc, #452]	@ (80007e8 <SystemCoreClockUpdate+0x248>)
 8000622:	681b      	ldr	r3, [r3, #0]
 8000624:	08db      	lsrs	r3, r3, #3
 8000626:	f003 0303 	and.w	r3, r3, #3
 800062a:	4a70      	ldr	r2, [pc, #448]	@ (80007ec <SystemCoreClockUpdate+0x24c>)
 800062c:	fa22 f303 	lsr.w	r3, r2, r3
 8000630:	4a6f      	ldr	r2, [pc, #444]	@ (80007f0 <SystemCoreClockUpdate+0x250>)
 8000632:	6013      	str	r3, [r2, #0]
 8000634:	e0c4      	b.n	80007c0 <SystemCoreClockUpdate+0x220>
 8000636:	4b6e      	ldr	r3, [pc, #440]	@ (80007f0 <SystemCoreClockUpdate+0x250>)
 8000638:	4a6e      	ldr	r2, [pc, #440]	@ (80007f4 <SystemCoreClockUpdate+0x254>)
 800063a:	601a      	str	r2, [r3, #0]
 800063c:	e0c0      	b.n	80007c0 <SystemCoreClockUpdate+0x220>
 800063e:	4b6c      	ldr	r3, [pc, #432]	@ (80007f0 <SystemCoreClockUpdate+0x250>)
 8000640:	4a6d      	ldr	r2, [pc, #436]	@ (80007f8 <SystemCoreClockUpdate+0x258>)
 8000642:	601a      	str	r2, [r3, #0]
 8000644:	e0bc      	b.n	80007c0 <SystemCoreClockUpdate+0x220>
 8000646:	4b68      	ldr	r3, [pc, #416]	@ (80007e8 <SystemCoreClockUpdate+0x248>)
 8000648:	6a9b      	ldr	r3, [r3, #40]	@ 0x28
 800064a:	f003 0303 	and.w	r3, r3, #3
 800064e:	61bb      	str	r3, [r7, #24]
 8000650:	4b65      	ldr	r3, [pc, #404]	@ (80007e8 <SystemCoreClockUpdate+0x248>)
 8000652:	6a9b      	ldr	r3, [r3, #40]	@ 0x28
 8000654:	0a1b      	lsrs	r3, r3, #8
 8000656:	f003 033f 	and.w	r3, r3, #63	@ 0x3f
 800065a:	617b      	str	r3, [r7, #20]
 800065c:	4b62      	ldr	r3, [pc, #392]	@ (80007e8 <SystemCoreClockUpdate+0x248>)
 800065e:	6a9b      	ldr	r3, [r3, #40]	@ 0x28
 8000660:	091b      	lsrs	r3, r3, #4
 8000662:	f003 0301 	and.w	r3, r3, #1
 8000666:	613b      	str	r3, [r7, #16]
 8000668:	4b5f      	ldr	r3, [pc, #380]	@ (80007e8 <SystemCoreClockUpdate+0x248>)
 800066a:	6b9b      	ldr	r3, [r3, #56]	@ 0x38
 800066c:	08db      	lsrs	r3, r3, #3
 800066e:	f3c3 030c 	ubfx	r3, r3, #0, #13
 8000672:	693a      	ldr	r2, [r7, #16]
 8000674:	fb02 f303 	mul.w	r3, r2, r3
 8000678:	ee07 3a90 	vmov	s15, r3
 800067c:	eef8 7a67 	vcvt.f32.u32	s15, s15
 8000680:	edc7 7a03 	vstr	s15, [r7, #12]
 8000684:	69bb      	ldr	r3, [r7, #24]
 8000686:	2b03      	cmp	r3, #3
 8000688:	d059      	beq.n	800073e <SystemCoreClockUpdate+0x19e>
 800068a:	69bb      	ldr	r3, [r7, #24]
 800068c:	2b03      	cmp	r3, #3
 800068e:	d878      	bhi.n	8000782 <SystemCoreClockUpdate+0x1e2>
 8000690:	69bb      	ldr	r3, [r7, #24]
 8000692:	2b01      	cmp	r3, #1
 8000694:	d003      	beq.n	800069e <SystemCoreClockUpdate+0xfe>
 8000696:	69bb      	ldr	r3, [r7, #24]
 8000698:	2b02      	cmp	r3, #2
 800069a:	d02e      	beq.n	80006fa <SystemCoreClockUpdate+0x15a>
 800069c:	e071      	b.n	8000782 <SystemCoreClockUpdate+0x1e2>
 800069e:	4b52      	ldr	r3, [pc, #328]	@ (80007e8 <SystemCoreClockUpdate+0x248>)
 80006a0:	681b      	ldr	r3, [r3, #0]
 80006a2:	08db      	lsrs	r3, r3, #3
 80006a4:	f003 0303 	and.w	r3, r3, #3
 80006a8:	4a50      	ldr	r2, [pc, #320]	@ (80007ec <SystemCoreClockUpdate+0x24c>)
 80006aa:	fa22 f303 	lsr.w	r3, r2, r3
 80006ae:	60bb      	str	r3, [r7, #8]
 80006b0:	68bb      	ldr	r3, [r7, #8]
 80006b2:	ee07 3a90 	vmov	s15, r3
 80006b6:	eef8 6a67 	vcvt.f32.u32	s13, s15
 80006ba:	697b      	ldr	r3, [r7, #20]
 80006bc:	ee07 3a90 	vmov	s15, r3
 80006c0:	eef8 7a67 	vcvt.f32.u32	s15, s15
 80006c4:	ee86 7aa7 	vdiv.f32	s14, s13, s15
 80006c8:	4b47      	ldr	r3, [pc, #284]	@ (80007e8 <SystemCoreClockUpdate+0x248>)
 80006ca:	6b5b      	ldr	r3, [r3, #52]	@ 0x34
 80006cc:	f3c3 0308 	ubfx	r3, r3, #0, #9
 80006d0:	ee07 3a90 	vmov	s15, r3
 80006d4:	eef8 6a67 	vcvt.f32.u32	s13, s15
 80006d8:	ed97 6a03 	vldr	s12, [r7, #12]
 80006dc:	eddf 5a47 	vldr	s11, [pc, #284]	@ 80007fc <SystemCoreClockUpdate+0x25c>
 80006e0:	eec6 7a25 	vdiv.f32	s15, s12, s11
 80006e4:	ee76 7aa7 	vadd.f32	s15, s13, s15
 80006e8:	eef7 6a00 	vmov.f32	s13, #112	@ 0x3f800000  1.0
 80006ec:	ee77 7aa6 	vadd.f32	s15, s15, s13
 80006f0:	ee67 7a27 	vmul.f32	s15, s14, s15
 80006f4:	edc7 7a07 	vstr	s15, [r7, #28]
 80006f8:	e047      	b.n	800078a <SystemCoreClockUpdate+0x1ea>
 80006fa:	697b      	ldr	r3, [r7, #20]
 80006fc:	ee07 3a90 	vmov	s15, r3
 8000700:	eef8 7a67 	vcvt.f32.u32	s15, s15
 8000704:	eddf 6a3e 	vldr	s13, [pc, #248]	@ 8000800 <SystemCoreClockUpdate+0x260>
 8000708:	ee86 7aa7 	vdiv.f32	s14, s13, s15
 800070c:	4b36      	ldr	r3, [pc, #216]	@ (80007e8 <SystemCoreClockUpdate+0x248>)
 800070e:	6b5b      	ldr	r3, [r3, #52]	@ 0x34
 8000710:	f3c3 0308 	ubfx	r3, r3, #0, #9
 8000714:	ee07 3a90 	vmov	s15, r3
 8000718:	eef8 6a67 	vcvt.f32.u32	s13, s15
 800071c:	ed97 6a03 	vldr	s12, [r7, #12]
 8000720:	eddf 5a36 	vldr	s11, [pc, #216]	@ 80007fc <SystemCoreClockUpdate+0x25c>
 8000724:	eec6 7a25 	vdiv.f32	s15, s12, s11
 8000728:	ee76 7aa7 	vadd.f32	s15, s13, s15
 800072c:	eef7 6a00 	vmov.f32	s13, #112	@ 0x3f800000  1.0
 8000730:	ee77 7aa6 	vadd.f32	s15, s15, s13
 8000734:	ee67 7a27 	vmul.f32	s15, s14, s15
 8000738:	edc7 7a07 	vstr	s15, [r7, #28]
 800073c:	e025      	b.n	800078a <SystemCoreClockUpdate+0x1ea>
 800073e:	697b      	ldr	r3, [r7, #20]
 8000740:	ee07 3a90 	vmov	s15, r3
 8000744:	eef8 7a67 	vcvt.f32.u32	s15, s15
 8000748:	eddf 6a2e 	vldr	s13, [pc, #184]	@ 8000804 <SystemCoreClockUpdate+0x264>
 800074c:	ee86 7aa7 	vdiv.f32	s14, s13, s15
 8000750:	4b25      	ldr	r3, [pc, #148]	@ (80007e8 <SystemCoreClockUpdate+0x248>)
 8000752:	6b5b      	ldr	r3, [r3, #52]	@ 0x34
 8000754:	f3c3 0308 	ubfx	r3, r3, #0, #9
 8000758:	ee07 3a90 	vmov	s15, r3
 800075c:	eef8 6a67 	vcvt.f32.u32	s13, s15
 8000760:	ed97 6a03 	vldr	s12, [r7, #12]
 8000764:	eddf 5a25 	vldr	s11, [pc, #148]	@ 80007fc <SystemCoreClockUpdate+0x25c>
 8000768:	eec6 7a25 	vdiv.f32	s15, s12, s11
 800076c:	ee76 7aa7 	vadd.f32	s15, s13, s15
 8000770:	eef7 6a00 	vmov.f32	s13, #112	@ 0x3f800000  1.0
 8000774:	ee77 7aa6 	vadd.f32	s15, s15, s13
 8000778:	ee67 7a27 	vmul.f32	s15, s14, s15
 800077c:	edc7 7a07 	vstr	s15, [r7, #28]
 8000780:	e003      	b.n	800078a <SystemCoreClockUpdate+0x1ea>
 8000782:	f04f 0300 	mov.w	r3, #0
 8000786:	61fb      	str	r3, [r7, #28]
 8000788:	bf00      	nop
 800078a:	4b17      	ldr	r3, [pc, #92]	@ (80007e8 <SystemCoreClockUpdate+0x248>)
 800078c:	6b5b      	ldr	r3, [r3, #52]	@ 0x34
 800078e:	0a5b      	lsrs	r3, r3, #9
 8000790:	f003 037f 	and.w	r3, r3, #127	@ 0x7f
 8000794:	3301      	adds	r3, #1
 8000796:	607b      	str	r3, [r7, #4]
 8000798:	687b      	ldr	r3, [r7, #4]
 800079a:	ee07 3a90 	vmov	s15, r3
 800079e:	eeb8 7a67 	vcvt.f32.u32	s14, s15
 80007a2:	edd7 6a07 	vldr	s13, [r7, #28]
 80007a6:	eec6 7a87 	vdiv.f32	s15, s13, s14
 80007aa:	eefc 7ae7 	vcvt.u32.f32	s15, s15
 80007ae:	ee17 2a90 	vmov	r2, s15
 80007b2:	4b0f      	ldr	r3, [pc, #60]	@ (80007f0 <SystemCoreClockUpdate+0x250>)
 80007b4:	601a      	str	r2, [r3, #0]
 80007b6:	e003      	b.n	80007c0 <SystemCoreClockUpdate+0x220>
 80007b8:	4b0d      	ldr	r3, [pc, #52]	@ (80007f0 <SystemCoreClockUpdate+0x250>)
 80007ba:	4a0c      	ldr	r2, [pc, #48]	@ (80007ec <SystemCoreClockUpdate+0x24c>)
 80007bc:	601a      	str	r2, [r3, #0]
 80007be:	bf00      	nop
 80007c0:	4b09      	ldr	r3, [pc, #36]	@ (80007e8 <SystemCoreClockUpdate+0x248>)
 80007c2:	6a1b      	ldr	r3, [r3, #32]
 80007c4:	f003 030f 	and.w	r3, r3, #15
 80007c8:	4a0f      	ldr	r2, [pc, #60]	@ (8000808 <SystemCoreClockUpdate+0x268>)
 80007ca:	5cd3      	ldrb	r3, [r2, r3]
 80007cc:	603b      	str	r3, [r7, #0]
 80007ce:	4b08      	ldr	r3, [pc, #32]	@ (80007f0 <SystemCoreClockUpdate+0x250>)
 80007d0:	681a      	ldr	r2, [r3, #0]
 80007d2:	683b      	ldr	r3, [r7, #0]
 80007d4:	fa22 f303 	lsr.w	r3, r2, r3
 80007d8:	4a05      	ldr	r2, [pc, #20]	@ (80007f0 <SystemCoreClockUpdate+0x250>)
 80007da:	6013      	str	r3, [r2, #0]
 80007dc:	bf00      	nop
 80007de:	3724      	adds	r7, #36	@ 0x24
 80007e0:	46bd      	mov	sp, r7
 80007e2:	f85d 7b04 	ldr.w	r7, [sp], #4
 80007e6:	4770      	bx	lr
 80007e8:	44020c00 	.word	0x44020c00
 80007ec:	03d09000 	.word	0x03d09000
 80007f0:	20000000 	.word	0x20000000
 80007f4:	003d0900 	.word	0x003d0900
 80007f8:	017d7840 	.word	0x017d7840
 80007fc:	46000000 	.word	0x46000000
 8000800:	4a742400 	.word	0x4a742400
 8000804:	4bbebc20 	.word	0x4bbebc20
 8000808:	08003554 	.word	0x08003554
 800080c:	0800363c 	.word	0x0800363c
 8000810:	20000000 	.word	0x20000000
 8000814:	2000000c 	.word	0x2000000c
 8000818:	2000000c 	.word	0x2000000c
 800081c:	20000010 	.word	0x20000010

08000820 <HAL_Init>:
 8000820:	b580      	push	{r7, lr}
 8000822:	af00      	add	r7, sp, #0
 8000824:	2003      	movs	r0, #3
 8000826:	f002 fc19 	bl	800305c <HAL_NVIC_SetPriorityGrouping>
 800082a:	f001 ff73 	bl	8002714 <HAL_RCC_GetSysClockFreq>
 800082e:	4602      	mov	r2, r0
 8000830:	4b0c      	ldr	r3, [pc, #48]	@ (8000864 <HAL_Init+0x44>)
 8000832:	6a1b      	ldr	r3, [r3, #32]
 8000834:	f003 030f 	and.w	r3, r3, #15
 8000838:	490b      	ldr	r1, [pc, #44]	@ (8000868 <HAL_Init+0x48>)
 800083a:	5ccb      	ldrb	r3, [r1, r3]
 800083c:	fa22 f303 	lsr.w	r3, r2, r3
 8000840:	4a0a      	ldr	r2, [pc, #40]	@ (800086c <HAL_Init+0x4c>)
 8000842:	6013      	str	r3, [r2, #0]
 8000844:	2004      	movs	r0, #4
 8000846:	f002 fcc7 	bl	80031d8 <HAL_SYSTICK_CLKSourceConfig>
 800084a:	200f      	movs	r0, #15
 800084c:	f000 f862 	bl	8000914 <HAL_InitTick>
 8000850:	4603      	mov	r3, r0
 8000852:	2b00      	cmp	r3, #0
 8000854:	d001      	beq.n	800085a <HAL_Init+0x3a>
 8000856:	2301      	movs	r3, #1
 8000858:	e002      	b.n	8000860 <HAL_Init+0x40>
 800085a:	f000 f84d 	bl	80008f8 <HAL_MspInit>
 800085e:	2300      	movs	r3, #0
 8000860:	4618      	mov	r0, r3
 8000862:	bd80      	pop	{r7, pc}
 8000864:	44020c00 	.word	0x44020c00
 8000868:	08003554 	.word	0x08003554
 800086c:	20000000 	.word	0x20000000

08000870 <HAL_DeInit>:
 8000870:	b580      	push	{r7, lr}
 8000872:	af00      	add	r7, sp, #0
 8000874:	4b18      	ldr	r3, [pc, #96]	@ (80008d8 <HAL_DeInit+0x68>)
 8000876:	4a19      	ldr	r2, [pc, #100]	@ (80008dc <HAL_DeInit+0x6c>)
 8000878:	675a      	str	r2, [r3, #116]	@ 0x74
 800087a:	4b17      	ldr	r3, [pc, #92]	@ (80008d8 <HAL_DeInit+0x68>)
 800087c:	4a18      	ldr	r2, [pc, #96]	@ (80008e0 <HAL_DeInit+0x70>)
 800087e:	679a      	str	r2, [r3, #120]	@ 0x78
 8000880:	4b15      	ldr	r3, [pc, #84]	@ (80008d8 <HAL_DeInit+0x68>)
 8000882:	2200      	movs	r2, #0
 8000884:	675a      	str	r2, [r3, #116]	@ 0x74
 8000886:	4b14      	ldr	r3, [pc, #80]	@ (80008d8 <HAL_DeInit+0x68>)
 8000888:	2200      	movs	r2, #0
 800088a:	679a      	str	r2, [r3, #120]	@ 0x78
 800088c:	4b12      	ldr	r3, [pc, #72]	@ (80008d8 <HAL_DeInit+0x68>)
 800088e:	4a15      	ldr	r2, [pc, #84]	@ (80008e4 <HAL_DeInit+0x74>)
 8000890:	67da      	str	r2, [r3, #124]	@ 0x7c
 8000892:	4b11      	ldr	r3, [pc, #68]	@ (80008d8 <HAL_DeInit+0x68>)
 8000894:	2200      	movs	r2, #0
 8000896:	67da      	str	r2, [r3, #124]	@ 0x7c
 8000898:	4b0f      	ldr	r3, [pc, #60]	@ (80008d8 <HAL_DeInit+0x68>)
 800089a:	4a13      	ldr	r2, [pc, #76]	@ (80008e8 <HAL_DeInit+0x78>)
 800089c:	f8c3 2080 	str.w	r2, [r3, #128]	@ 0x80
 80008a0:	4b0d      	ldr	r3, [pc, #52]	@ (80008d8 <HAL_DeInit+0x68>)
 80008a2:	2200      	movs	r2, #0
 80008a4:	f8c3 2080 	str.w	r2, [r3, #128]	@ 0x80
 80008a8:	4b0b      	ldr	r3, [pc, #44]	@ (80008d8 <HAL_DeInit+0x68>)
 80008aa:	4a10      	ldr	r2, [pc, #64]	@ (80008ec <HAL_DeInit+0x7c>)
 80008ac:	661a      	str	r2, [r3, #96]	@ 0x60
 80008ae:	4b0a      	ldr	r3, [pc, #40]	@ (80008d8 <HAL_DeInit+0x68>)
 80008b0:	2200      	movs	r2, #0
 80008b2:	661a      	str	r2, [r3, #96]	@ 0x60
 80008b4:	4b08      	ldr	r3, [pc, #32]	@ (80008d8 <HAL_DeInit+0x68>)
 80008b6:	4a0e      	ldr	r2, [pc, #56]	@ (80008f0 <HAL_DeInit+0x80>)
 80008b8:	665a      	str	r2, [r3, #100]	@ 0x64
 80008ba:	4b07      	ldr	r3, [pc, #28]	@ (80008d8 <HAL_DeInit+0x68>)
 80008bc:	2200      	movs	r2, #0
 80008be:	665a      	str	r2, [r3, #100]	@ 0x64
 80008c0:	4b05      	ldr	r3, [pc, #20]	@ (80008d8 <HAL_DeInit+0x68>)
 80008c2:	4a0c      	ldr	r2, [pc, #48]	@ (80008f4 <HAL_DeInit+0x84>)
 80008c4:	66da      	str	r2, [r3, #108]	@ 0x6c
 80008c6:	4b04      	ldr	r3, [pc, #16]	@ (80008d8 <HAL_DeInit+0x68>)
 80008c8:	2200      	movs	r2, #0
 80008ca:	66da      	str	r2, [r3, #108]	@ 0x6c
 80008cc:	f000 f81b 	bl	8000906 <HAL_MspDeInit>
 80008d0:	2300      	movs	r3, #0
 80008d2:	4618      	mov	r0, r3
 80008d4:	bd80      	pop	{r7, pc}
 80008d6:	bf00      	nop
 80008d8:	44020c00 	.word	0x44020c00
 80008dc:	dffec1ff 	.word	0xdffec1ff
 80008e0:	4080062b 	.word	0x4080062b
 80008e4:	017f7800 	.word	0x017f7800
 80008e8:	001008e0 	.word	0x001008e0
 80008ec:	010ad003 	.word	0x010ad003
 80008f0:	001f1dff 	.word	0x001f1dff
 80008f4:	00111880 	.word	0x00111880

080008f8 <HAL_MspInit>:
 80008f8:	b480      	push	{r7}
 80008fa:	af00      	add	r7, sp, #0
 80008fc:	bf00      	nop
 80008fe:	46bd      	mov	sp, r7
 8000900:	f85d 7b04 	ldr.w	r7, [sp], #4
 8000904:	4770      	bx	lr

08000906 <HAL_MspDeInit>:
 8000906:	b480      	push	{r7}
 8000908:	af00      	add	r7, sp, #0
 800090a:	bf00      	nop
 800090c:	46bd      	mov	sp, r7
 800090e:	f85d 7b04 	ldr.w	r7, [sp], #4
 8000912:	4770      	bx	lr

08000914 <HAL_InitTick>:
 8000914:	b580      	push	{r7, lr}
 8000916:	b084      	sub	sp, #16
 8000918:	af00      	add	r7, sp, #0
 800091a:	6078      	str	r0, [r7, #4]
 800091c:	2300      	movs	r3, #0
 800091e:	60fb      	str	r3, [r7, #12]
 8000920:	4b33      	ldr	r3, [pc, #204]	@ (80009f0 <HAL_InitTick+0xdc>)
 8000922:	781b      	ldrb	r3, [r3, #0]
 8000924:	2b00      	cmp	r3, #0
 8000926:	d101      	bne.n	800092c <HAL_InitTick+0x18>
 8000928:	2301      	movs	r3, #1
 800092a:	e05c      	b.n	80009e6 <HAL_InitTick+0xd2>
 800092c:	4b31      	ldr	r3, [pc, #196]	@ (80009f4 <HAL_InitTick+0xe0>)
 800092e:	681b      	ldr	r3, [r3, #0]
 8000930:	f003 0304 	and.w	r3, r3, #4
 8000934:	2b04      	cmp	r3, #4
 8000936:	d10c      	bne.n	8000952 <HAL_InitTick+0x3e>
 8000938:	4b2f      	ldr	r3, [pc, #188]	@ (80009f8 <HAL_InitTick+0xe4>)
 800093a:	681a      	ldr	r2, [r3, #0]
 800093c:	4b2c      	ldr	r3, [pc, #176]	@ (80009f0 <HAL_InitTick+0xdc>)
 800093e:	781b      	ldrb	r3, [r3, #0]
 8000940:	4619      	mov	r1, r3
 8000942:	f44f 737a 	mov.w	r3, #1000	@ 0x3e8
 8000946:	fbb3 f3f1 	udiv	r3, r3, r1
 800094a:	fbb2 f3f3 	udiv	r3, r2, r3
 800094e:	60fb      	str	r3, [r7, #12]
 8000950:	e037      	b.n	80009c2 <HAL_InitTick+0xae>
 8000952:	f002 fc99 	bl	8003288 <HAL_SYSTICK_GetCLKSourceConfig>
 8000956:	60b8      	str	r0, [r7, #8]
 8000958:	68bb      	ldr	r3, [r7, #8]
 800095a:	2b02      	cmp	r3, #2
 800095c:	d023      	beq.n	80009a6 <HAL_InitTick+0x92>
 800095e:	68bb      	ldr	r3, [r7, #8]
 8000960:	2b02      	cmp	r3, #2
 8000962:	d82d      	bhi.n	80009c0 <HAL_InitTick+0xac>
 8000964:	68bb      	ldr	r3, [r7, #8]
 8000966:	2b00      	cmp	r3, #0
 8000968:	d003      	beq.n	8000972 <HAL_InitTick+0x5e>
 800096a:	68bb      	ldr	r3, [r7, #8]
 800096c:	2b01      	cmp	r3, #1
 800096e:	d00d      	beq.n	800098c <HAL_InitTick+0x78>
 8000970:	e026      	b.n	80009c0 <HAL_InitTick+0xac>
 8000972:	4b21      	ldr	r3, [pc, #132]	@ (80009f8 <HAL_InitTick+0xe4>)
 8000974:	681a      	ldr	r2, [r3, #0]
 8000976:	4b1e      	ldr	r3, [pc, #120]	@ (80009f0 <HAL_InitTick+0xdc>)
 8000978:	781b      	ldrb	r3, [r3, #0]
 800097a:	4619      	mov	r1, r3
 800097c:	f44f 53fa 	mov.w	r3, #8000	@ 0x1f40
 8000980:	fbb3 f3f1 	udiv	r3, r3, r1
 8000984:	fbb2 f3f3 	udiv	r3, r2, r3
 8000988:	60fb      	str	r3, [r7, #12]
 800098a:	e01a      	b.n	80009c2 <HAL_InitTick+0xae>
 800098c:	4b18      	ldr	r3, [pc, #96]	@ (80009f0 <HAL_InitTick+0xdc>)
 800098e:	781b      	ldrb	r3, [r3, #0]
 8000990:	461a      	mov	r2, r3
 8000992:	f44f 737a 	mov.w	r3, #1000	@ 0x3e8
 8000996:	fbb3 f3f2 	udiv	r3, r3, r2
 800099a:	f44f 42fa 	mov.w	r2, #32000	@ 0x7d00
 800099e:	fbb2 f3f3 	udiv	r3, r2, r3
 80009a2:	60fb      	str	r3, [r7, #12]
 80009a4:	e00d      	b.n	80009c2 <HAL_InitTick+0xae>
 80009a6:	4b12      	ldr	r3, [pc, #72]	@ (80009f0 <HAL_InitTick+0xdc>)
 80009a8:	781b      	ldrb	r3, [r3, #0]
 80009aa:	461a      	mov	r2, r3
 80009ac:	f44f 737a 	mov.w	r3, #1000	@ 0x3e8
 80009b0:	fbb3 f3f2 	udiv	r3, r3, r2
 80009b4:	f44f 4200 	mov.w	r2, #32768	@ 0x8000
 80009b8:	fbb2 f3f3 	udiv	r3, r2, r3
 80009bc:	60fb      	str	r3, [r7, #12]
 80009be:	e000      	b.n	80009c2 <HAL_InitTick+0xae>
 80009c0:	bf00      	nop
 80009c2:	68f8      	ldr	r0, [r7, #12]
 80009c4:	f002 fbe6 	bl	8003194 <HAL_SYSTICK_Config>
 80009c8:	4603      	mov	r3, r0
 80009ca:	2b00      	cmp	r3, #0
 80009cc:	d001      	beq.n	80009d2 <HAL_InitTick+0xbe>
 80009ce:	2301      	movs	r3, #1
 80009d0:	e009      	b.n	80009e6 <HAL_InitTick+0xd2>
 80009d2:	2200      	movs	r2, #0
 80009d4:	6879      	ldr	r1, [r7, #4]
 80009d6:	f04f 30ff 	mov.w	r0, #4294967295
 80009da:	f002 fb4a 	bl	8003072 <HAL_NVIC_SetPriority>
 80009de:	4a07      	ldr	r2, [pc, #28]	@ (80009fc <HAL_InitTick+0xe8>)
 80009e0:	687b      	ldr	r3, [r7, #4]
 80009e2:	6013      	str	r3, [r2, #0]
 80009e4:	2300      	movs	r3, #0
 80009e6:	4618      	mov	r0, r3
 80009e8:	3710      	adds	r7, #16
 80009ea:	46bd      	mov	sp, r7
 80009ec:	bd80      	pop	{r7, pc}
 80009ee:	bf00      	nop
 80009f0:	20000008 	.word	0x20000008
 80009f4:	e000e010 	.word	0xe000e010
 80009f8:	20000000 	.word	0x20000000
 80009fc:	20000004 	.word	0x20000004

08000a00 <HAL_IncTick>:
 8000a00:	b480      	push	{r7}
 8000a02:	af00      	add	r7, sp, #0
 8000a04:	4b06      	ldr	r3, [pc, #24]	@ (8000a20 <HAL_IncTick+0x20>)
 8000a06:	781b      	ldrb	r3, [r3, #0]
 8000a08:	461a      	mov	r2, r3
 8000a0a:	4b06      	ldr	r3, [pc, #24]	@ (8000a24 <HAL_IncTick+0x24>)
 8000a0c:	681b      	ldr	r3, [r3, #0]
 8000a0e:	4413      	add	r3, r2
 8000a10:	4a04      	ldr	r2, [pc, #16]	@ (8000a24 <HAL_IncTick+0x24>)
 8000a12:	6013      	str	r3, [r2, #0]
 8000a14:	bf00      	nop
 8000a16:	46bd      	mov	sp, r7
 8000a18:	f85d 7b04 	ldr.w	r7, [sp], #4
 8000a1c:	4770      	bx	lr
 8000a1e:	bf00      	nop
 8000a20:	20000008 	.word	0x20000008
 8000a24:	2000000c 	.word	0x2000000c

08000a28 <HAL_GetTick>:
 8000a28:	b480      	push	{r7}
 8000a2a:	af00      	add	r7, sp, #0
 8000a2c:	4b03      	ldr	r3, [pc, #12]	@ (8000a3c <HAL_GetTick+0x14>)
 8000a2e:	681b      	ldr	r3, [r3, #0]
 8000a30:	4618      	mov	r0, r3
 8000a32:	46bd      	mov	sp, r7
 8000a34:	f85d 7b04 	ldr.w	r7, [sp], #4
 8000a38:	4770      	bx	lr
 8000a3a:	bf00      	nop
 8000a3c:	2000000c 	.word	0x2000000c

08000a40 <HAL_GetTickPrio>:
 8000a40:	b480      	push	{r7}
 8000a42:	af00      	add	r7, sp, #0
 8000a44:	4b03      	ldr	r3, [pc, #12]	@ (8000a54 <HAL_GetTickPrio+0x14>)
 8000a46:	681b      	ldr	r3, [r3, #0]
 8000a48:	4618      	mov	r0, r3
 8000a4a:	46bd      	mov	sp, r7
 8000a4c:	f85d 7b04 	ldr.w	r7, [sp], #4
 8000a50:	4770      	bx	lr
 8000a52:	bf00      	nop
 8000a54:	20000004 	.word	0x20000004

08000a58 <HAL_SetTickFreq>:
 8000a58:	b580      	push	{r7, lr}
 8000a5a:	b084      	sub	sp, #16
 8000a5c:	af00      	add	r7, sp, #0
 8000a5e:	4603      	mov	r3, r0
 8000a60:	71fb      	strb	r3, [r7, #7]
 8000a62:	2300      	movs	r3, #0
 8000a64:	73fb      	strb	r3, [r7, #15]
 8000a66:	4b0e      	ldr	r3, [pc, #56]	@ (8000aa0 <HAL_SetTickFreq+0x48>)
 8000a68:	781b      	ldrb	r3, [r3, #0]
 8000a6a:	79fa      	ldrb	r2, [r7, #7]
 8000a6c:	429a      	cmp	r2, r3
 8000a6e:	d012      	beq.n	8000a96 <HAL_SetTickFreq+0x3e>
 8000a70:	4b0b      	ldr	r3, [pc, #44]	@ (8000aa0 <HAL_SetTickFreq+0x48>)
 8000a72:	781b      	ldrb	r3, [r3, #0]
 8000a74:	73bb      	strb	r3, [r7, #14]
 8000a76:	4a0a      	ldr	r2, [pc, #40]	@ (8000aa0 <HAL_SetTickFreq+0x48>)
 8000a78:	79fb      	ldrb	r3, [r7, #7]
 8000a7a:	7013      	strb	r3, [r2, #0]
 8000a7c:	4b09      	ldr	r3, [pc, #36]	@ (8000aa4 <HAL_SetTickFreq+0x4c>)
 8000a7e:	681b      	ldr	r3, [r3, #0]
 8000a80:	4618      	mov	r0, r3
 8000a82:	f7ff ff47 	bl	8000914 <HAL_InitTick>
 8000a86:	4603      	mov	r3, r0
 8000a88:	73fb      	strb	r3, [r7, #15]
 8000a8a:	7bfb      	ldrb	r3, [r7, #15]
 8000a8c:	2b00      	cmp	r3, #0
 8000a8e:	d002      	beq.n	8000a96 <HAL_SetTickFreq+0x3e>
 8000a90:	4a03      	ldr	r2, [pc, #12]	@ (8000aa0 <HAL_SetTickFreq+0x48>)
 8000a92:	7bbb      	ldrb	r3, [r7, #14]
 8000a94:	7013      	strb	r3, [r2, #0]
 8000a96:	7bfb      	ldrb	r3, [r7, #15]
 8000a98:	4618      	mov	r0, r3
 8000a9a:	3710      	adds	r7, #16
 8000a9c:	46bd      	mov	sp, r7
 8000a9e:	bd80      	pop	{r7, pc}
 8000aa0:	20000008 	.word	0x20000008
 8000aa4:	20000004 	.word	0x20000004

08000aa8 <HAL_GetTickFreq>:
 8000aa8:	b480      	push	{r7}
 8000aaa:	af00      	add	r7, sp, #0
 8000aac:	4b03      	ldr	r3, [pc, #12]	@ (8000abc <HAL_GetTickFreq+0x14>)
 8000aae:	781b      	ldrb	r3, [r3, #0]
 8000ab0:	4618      	mov	r0, r3
 8000ab2:	46bd      	mov	sp, r7
 8000ab4:	f85d 7b04 	ldr.w	r7, [sp], #4
 8000ab8:	4770      	bx	lr
 8000aba:	bf00      	nop
 8000abc:	20000008 	.word	0x20000008

08000ac0 <HAL_Delay>:
 8000ac0:	b580      	push	{r7, lr}
 8000ac2:	b084      	sub	sp, #16
 8000ac4:	af00      	add	r7, sp, #0
 8000ac6:	6078      	str	r0, [r7, #4]
 8000ac8:	f7ff ffae 	bl	8000a28 <HAL_GetTick>
 8000acc:	60b8      	str	r0, [r7, #8]
 8000ace:	687b      	ldr	r3, [r7, #4]
 8000ad0:	60fb      	str	r3, [r7, #12]
 8000ad2:	68fb      	ldr	r3, [r7, #12]
 8000ad4:	f1b3 3fff 	cmp.w	r3, #4294967295
 8000ad8:	d005      	beq.n	8000ae6 <HAL_Delay+0x26>
 8000ada:	4b0a      	ldr	r3, [pc, #40]	@ (8000b04 <HAL_Delay+0x44>)
 8000adc:	781b      	ldrb	r3, [r3, #0]
 8000ade:	461a      	mov	r2, r3
 8000ae0:	68fb      	ldr	r3, [r7, #12]
 8000ae2:	4413      	add	r3, r2
 8000ae4:	60fb      	str	r3, [r7, #12]
 8000ae6:	bf00      	nop
 8000ae8:	f7ff ff9e 	bl	8000a28 <HAL_GetTick>
 8000aec:	4602      	mov	r2, r0
 8000aee:	68bb      	ldr	r3, [r7, #8]
 8000af0:	1ad3      	subs	r3, r2, r3
 8000af2:	68fa      	ldr	r2, [r7, #12]
 8000af4:	429a      	cmp	r2, r3
 8000af6:	d8f7      	bhi.n	8000ae8 <HAL_Delay+0x28>
 8000af8:	bf00      	nop
 8000afa:	bf00      	nop
 8000afc:	3710      	adds	r7, #16
 8000afe:	46bd      	mov	sp, r7
 8000b00:	bd80      	pop	{r7, pc}
 8000b02:	bf00      	nop
 8000b04:	20000008 	.word	0x20000008

08000b08 <HAL_SuspendTick>:
 8000b08:	b480      	push	{r7}
 8000b0a:	af00      	add	r7, sp, #0
 8000b0c:	4b05      	ldr	r3, [pc, #20]	@ (8000b24 <HAL_SuspendTick+0x1c>)
 8000b0e:	681b      	ldr	r3, [r3, #0]
 8000b10:	4a04      	ldr	r2, [pc, #16]	@ (8000b24 <HAL_SuspendTick+0x1c>)
 8000b12:	f023 0302 	bic.w	r3, r3, #2
 8000b16:	6013      	str	r3, [r2, #0]
 8000b18:	bf00      	nop
 8000b1a:	46bd      	mov	sp, r7
 8000b1c:	f85d 7b04 	ldr.w	r7, [sp], #4
 8000b20:	4770      	bx	lr
 8000b22:	bf00      	nop
 8000b24:	e000e010 	.word	0xe000e010

08000b28 <HAL_ResumeTick>:
 8000b28:	b480      	push	{r7}
 8000b2a:	af00      	add	r7, sp, #0
 8000b2c:	4b05      	ldr	r3, [pc, #20]	@ (8000b44 <HAL_ResumeTick+0x1c>)
 8000b2e:	681b      	ldr	r3, [r3, #0]
 8000b30:	4a04      	ldr	r2, [pc, #16]	@ (8000b44 <HAL_ResumeTick+0x1c>)
 8000b32:	f043 0302 	orr.w	r3, r3, #2
 8000b36:	6013      	str	r3, [r2, #0]
 8000b38:	bf00      	nop
 8000b3a:	46bd      	mov	sp, r7
 8000b3c:	f85d 7b04 	ldr.w	r7, [sp], #4
 8000b40:	4770      	bx	lr
 8000b42:	bf00      	nop
 8000b44:	e000e010 	.word	0xe000e010

08000b48 <HAL_GetHalVersion>:
 8000b48:	b480      	push	{r7}
 8000b4a:	af00      	add	r7, sp, #0
 8000b4c:	4b02      	ldr	r3, [pc, #8]	@ (8000b58 <HAL_GetHalVersion+0x10>)
 8000b4e:	4618      	mov	r0, r3
 8000b50:	46bd      	mov	sp, r7
 8000b52:	f85d 7b04 	ldr.w	r7, [sp], #4
 8000b56:	4770      	bx	lr
 8000b58:	01050000 	.word	0x01050000

08000b5c <HAL_GetREVID>:
 8000b5c:	b480      	push	{r7}
 8000b5e:	af00      	add	r7, sp, #0
 8000b60:	4b04      	ldr	r3, [pc, #16]	@ (8000b74 <HAL_GetREVID+0x18>)
 8000b62:	681b      	ldr	r3, [r3, #0]
 8000b64:	0c1b      	lsrs	r3, r3, #16
 8000b66:	b29b      	uxth	r3, r3
 8000b68:	4618      	mov	r0, r3
 8000b6a:	46bd      	mov	sp, r7
 8000b6c:	f85d 7b04 	ldr.w	r7, [sp], #4
 8000b70:	4770      	bx	lr
 8000b72:	bf00      	nop
 8000b74:	44024000 	.word	0x44024000

08000b78 <HAL_GetDEVID>:
 8000b78:	b480      	push	{r7}
 8000b7a:	af00      	add	r7, sp, #0
 8000b7c:	4b04      	ldr	r3, [pc, #16]	@ (8000b90 <HAL_GetDEVID+0x18>)
 8000b7e:	681b      	ldr	r3, [r3, #0]
 8000b80:	f3c3 030b 	ubfx	r3, r3, #0, #12
 8000b84:	4618      	mov	r0, r3
 8000b86:	46bd      	mov	sp, r7
 8000b88:	f85d 7b04 	ldr.w	r7, [sp], #4
 8000b8c:	4770      	bx	lr
 8000b8e:	bf00      	nop
 8000b90:	44024000 	.word	0x44024000

08000b94 <HAL_GetUIDw0>:
 8000b94:	b480      	push	{r7}
 8000b96:	af00      	add	r7, sp, #0
 8000b98:	4b03      	ldr	r3, [pc, #12]	@ (8000ba8 <HAL_GetUIDw0+0x14>)
 8000b9a:	681b      	ldr	r3, [r3, #0]
 8000b9c:	4618      	mov	r0, r3
 8000b9e:	46bd      	mov	sp, r7
 8000ba0:	f85d 7b04 	ldr.w	r7, [sp], #4
 8000ba4:	4770      	bx	lr
 8000ba6:	bf00      	nop
 8000ba8:	08fff800 	.word	0x08fff800

08000bac <HAL_GetUIDw1>:
 8000bac:	b480      	push	{r7}
 8000bae:	af00      	add	r7, sp, #0
 8000bb0:	4b03      	ldr	r3, [pc, #12]	@ (8000bc0 <HAL_GetUIDw1+0x14>)
 8000bb2:	681b      	ldr	r3, [r3, #0]
 8000bb4:	4618      	mov	r0, r3
 8000bb6:	46bd      	mov	sp, r7
 8000bb8:	f85d 7b04 	ldr.w	r7, [sp], #4
 8000bbc:	4770      	bx	lr
 8000bbe:	bf00      	nop
 8000bc0:	08fff804 	.word	0x08fff804

08000bc4 <HAL_GetUIDw2>:
 8000bc4:	b480      	push	{r7}
 8000bc6:	af00      	add	r7, sp, #0
 8000bc8:	4b03      	ldr	r3, [pc, #12]	@ (8000bd8 <HAL_GetUIDw2+0x14>)
 8000bca:	681b      	ldr	r3, [r3, #0]
 8000bcc:	4618      	mov	r0, r3
 8000bce:	46bd      	mov	sp, r7
 8000bd0:	f85d 7b04 	ldr.w	r7, [sp], #4
 8000bd4:	4770      	bx	lr
 8000bd6:	bf00      	nop
 8000bd8:	08fff808 	.word	0x08fff808

08000bdc <HAL_DBGMCU_EnableDBGStopMode>:
 8000bdc:	b480      	push	{r7}
 8000bde:	af00      	add	r7, sp, #0
 8000be0:	4b05      	ldr	r3, [pc, #20]	@ (8000bf8 <HAL_DBGMCU_EnableDBGStopMode+0x1c>)
 8000be2:	685b      	ldr	r3, [r3, #4]
 8000be4:	4a04      	ldr	r2, [pc, #16]	@ (8000bf8 <HAL_DBGMCU_EnableDBGStopMode+0x1c>)
 8000be6:	f043 0302 	orr.w	r3, r3, #2
 8000bea:	6053      	str	r3, [r2, #4]
 8000bec:	bf00      	nop
 8000bee:	46bd      	mov	sp, r7
 8000bf0:	f85d 7b04 	ldr.w	r7, [sp], #4
 8000bf4:	4770      	bx	lr
 8000bf6:	bf00      	nop
 8000bf8:	44024000 	.word	0x44024000

08000bfc <HAL_DBGMCU_DisableDBGStopMode>:
 8000bfc:	b480      	push	{r7}
 8000bfe:	af00      	add	r7, sp, #0
 8000c00:	4b05      	ldr	r3, [pc, #20]	@ (8000c18 <HAL_DBGMCU_DisableDBGStopMode+0x1c>)
 8000c02:	685b      	ldr	r3, [r3, #4]
 8000c04:	4a04      	ldr	r2, [pc, #16]	@ (8000c18 <HAL_DBGMCU_DisableDBGStopMode+0x1c>)
 8000c06:	f023 0302 	bic.w	r3, r3, #2
 8000c0a:	6053      	str	r3, [r2, #4]
 8000c0c:	bf00      	nop
 8000c0e:	46bd      	mov	sp, r7
 8000c10:	f85d 7b04 	ldr.w	r7, [sp], #4
 8000c14:	4770      	bx	lr
 8000c16:	bf00      	nop
 8000c18:	44024000 	.word	0x44024000

08000c1c <HAL_DBGMCU_EnableDBGStandbyMode>:
 8000c1c:	b480      	push	{r7}
 8000c1e:	af00      	add	r7, sp, #0
 8000c20:	4b05      	ldr	r3, [pc, #20]	@ (8000c38 <HAL_DBGMCU_EnableDBGStandbyMode+0x1c>)
 8000c22:	685b      	ldr	r3, [r3, #4]
 8000c24:	4a04      	ldr	r2, [pc, #16]	@ (8000c38 <HAL_DBGMCU_EnableDBGStandbyMode+0x1c>)
 8000c26:	f043 0304 	orr.w	r3, r3, #4
 8000c2a:	6053      	str	r3, [r2, #4]
 8000c2c:	bf00      	nop
 8000c2e:	46bd      	mov	sp, r7
 8000c30:	f85d 7b04 	ldr.w	r7, [sp], #4
 8000c34:	4770      	bx	lr
 8000c36:	bf00      	nop
 8000c38:	44024000 	.word	0x44024000

08000c3c <HAL_DBGMCU_DisableDBGStandbyMode>:
 8000c3c:	b480      	push	{r7}
 8000c3e:	af00      	add	r7, sp, #0
 8000c40:	4b05      	ldr	r3, [pc, #20]	@ (8000c58 <HAL_DBGMCU_DisableDBGStandbyMode+0x1c>)
 8000c42:	685b      	ldr	r3, [r3, #4]
 8000c44:	4a04      	ldr	r2, [pc, #16]	@ (8000c58 <HAL_DBGMCU_DisableDBGStandbyMode+0x1c>)
 8000c46:	f023 0304 	bic.w	r3, r3, #4
 8000c4a:	6053      	str	r3, [r2, #4]
 8000c4c:	bf00      	nop
 8000c4e:	46bd      	mov	sp, r7
 8000c50:	f85d 7b04 	ldr.w	r7, [sp], #4
 8000c54:	4770      	bx	lr
 8000c56:	bf00      	nop
 8000c58:	44024000 	.word	0x44024000

08000c5c <HAL_VREFBUF_VoltageScalingConfig>:
 8000c5c:	b480      	push	{r7}
 8000c5e:	b083      	sub	sp, #12
 8000c60:	af00      	add	r7, sp, #0
 8000c62:	6078      	str	r0, [r7, #4]
 8000c64:	4b06      	ldr	r3, [pc, #24]	@ (8000c80 <HAL_VREFBUF_VoltageScalingConfig+0x24>)
 8000c66:	681b      	ldr	r3, [r3, #0]
 8000c68:	f023 0270 	bic.w	r2, r3, #112	@ 0x70
 8000c6c:	4904      	ldr	r1, [pc, #16]	@ (8000c80 <HAL_VREFBUF_VoltageScalingConfig+0x24>)
 8000c6e:	687b      	ldr	r3, [r7, #4]
 8000c70:	4313      	orrs	r3, r2
 8000c72:	600b      	str	r3, [r1, #0]
 8000c74:	bf00      	nop
 8000c76:	370c      	adds	r7, #12
 8000c78:	46bd      	mov	sp, r7
 8000c7a:	f85d 7b04 	ldr.w	r7, [sp], #4
 8000c7e:	4770      	bx	lr
 8000c80:	44007400 	.word	0x44007400

08000c84 <HAL_VREFBUF_HighImpedanceConfig>:
 8000c84:	b480      	push	{r7}
 8000c86:	b083      	sub	sp, #12
 8000c88:	af00      	add	r7, sp, #0
 8000c8a:	6078      	str	r0, [r7, #4]
 8000c8c:	4b06      	ldr	r3, [pc, #24]	@ (8000ca8 <HAL_VREFBUF_HighImpedanceConfig+0x24>)
 8000c8e:	681b      	ldr	r3, [r3, #0]
 8000c90:	f023 0202 	bic.w	r2, r3, #2
 8000c94:	4904      	ldr	r1, [pc, #16]	@ (8000ca8 <HAL_VREFBUF_HighImpedanceConfig+0x24>)
 8000c96:	687b      	ldr	r3, [r7, #4]
 8000c98:	4313      	orrs	r3, r2
 8000c9a:	600b      	str	r3, [r1, #0]
 8000c9c:	bf00      	nop
 8000c9e:	370c      	adds	r7, #12
 8000ca0:	46bd      	mov	sp, r7
 8000ca2:	f85d 7b04 	ldr.w	r7, [sp], #4
 8000ca6:	4770      	bx	lr
 8000ca8:	44007400 	.word	0x44007400

08000cac <HAL_VREFBUF_TrimmingConfig>:
 8000cac:	b480      	push	{r7}
 8000cae:	b083      	sub	sp, #12
 8000cb0:	af00      	add	r7, sp, #0
 8000cb2:	6078      	str	r0, [r7, #4]
 8000cb4:	4b06      	ldr	r3, [pc, #24]	@ (8000cd0 <HAL_VREFBUF_TrimmingConfig+0x24>)
 8000cb6:	685b      	ldr	r3, [r3, #4]
 8000cb8:	f023 023f 	bic.w	r2, r3, #63	@ 0x3f
 8000cbc:	4904      	ldr	r1, [pc, #16]	@ (8000cd0 <HAL_VREFBUF_TrimmingConfig+0x24>)
 8000cbe:	687b      	ldr	r3, [r7, #4]
 8000cc0:	4313      	orrs	r3, r2
 8000cc2:	604b      	str	r3, [r1, #4]
 8000cc4:	bf00      	nop
 8000cc6:	370c      	adds	r7, #12
 8000cc8:	46bd      	mov	sp, r7
 8000cca:	f85d 7b04 	ldr.w	r7, [sp], #4
 8000cce:	4770      	bx	lr
 8000cd0:	44007400 	.word	0x44007400

08000cd4 <HAL_EnableVREFBUF>:
 8000cd4:	b580      	push	{r7, lr}
 8000cd6:	b082      	sub	sp, #8
 8000cd8:	af00      	add	r7, sp, #0
 8000cda:	4b0f      	ldr	r3, [pc, #60]	@ (8000d18 <HAL_EnableVREFBUF+0x44>)
 8000cdc:	681b      	ldr	r3, [r3, #0]
 8000cde:	4a0e      	ldr	r2, [pc, #56]	@ (8000d18 <HAL_EnableVREFBUF+0x44>)
 8000ce0:	f043 0301 	orr.w	r3, r3, #1
 8000ce4:	6013      	str	r3, [r2, #0]
 8000ce6:	f7ff fe9f 	bl	8000a28 <HAL_GetTick>
 8000cea:	6078      	str	r0, [r7, #4]
 8000cec:	e008      	b.n	8000d00 <HAL_EnableVREFBUF+0x2c>
 8000cee:	f7ff fe9b 	bl	8000a28 <HAL_GetTick>
 8000cf2:	4602      	mov	r2, r0
 8000cf4:	687b      	ldr	r3, [r7, #4]
 8000cf6:	1ad3      	subs	r3, r2, r3
 8000cf8:	2b0a      	cmp	r3, #10
 8000cfa:	d901      	bls.n	8000d00 <HAL_EnableVREFBUF+0x2c>
 8000cfc:	2303      	movs	r3, #3
 8000cfe:	e006      	b.n	8000d0e <HAL_EnableVREFBUF+0x3a>
 8000d00:	4b05      	ldr	r3, [pc, #20]	@ (8000d18 <HAL_EnableVREFBUF+0x44>)
 8000d02:	681b      	ldr	r3, [r3, #0]
 8000d04:	f003 0308 	and.w	r3, r3, #8
 8000d08:	2b00      	cmp	r3, #0
 8000d0a:	d0f0      	beq.n	8000cee <HAL_EnableVREFBUF+0x1a>
 8000d0c:	2300      	movs	r3, #0
 8000d0e:	4618      	mov	r0, r3
 8000d10:	3708      	adds	r7, #8
 8000d12:	46bd      	mov	sp, r7
 8000d14:	bd80      	pop	{r7, pc}
 8000d16:	bf00      	nop
 8000d18:	44007400 	.word	0x44007400

08000d1c <HAL_DisableVREFBUF>:
 8000d1c:	b480      	push	{r7}
 8000d1e:	af00      	add	r7, sp, #0
 8000d20:	4b05      	ldr	r3, [pc, #20]	@ (8000d38 <HAL_DisableVREFBUF+0x1c>)
 8000d22:	681b      	ldr	r3, [r3, #0]
 8000d24:	4a04      	ldr	r2, [pc, #16]	@ (8000d38 <HAL_DisableVREFBUF+0x1c>)
 8000d26:	f023 0301 	bic.w	r3, r3, #1
 8000d2a:	6013      	str	r3, [r2, #0]
 8000d2c:	bf00      	nop
 8000d2e:	46bd      	mov	sp, r7
 8000d30:	f85d 7b04 	ldr.w	r7, [sp], #4
 8000d34:	4770      	bx	lr
 8000d36:	bf00      	nop
 8000d38:	44007400 	.word	0x44007400

08000d3c <HAL_SBS_ETHInterfaceSelect>:
 8000d3c:	b480      	push	{r7}
 8000d3e:	b083      	sub	sp, #12
 8000d40:	af00      	add	r7, sp, #0
 8000d42:	6078      	str	r0, [r7, #4]
 8000d44:	4b07      	ldr	r3, [pc, #28]	@ (8000d64 <HAL_SBS_ETHInterfaceSelect+0x28>)
 8000d46:	f8d3 3100 	ldr.w	r3, [r3, #256]	@ 0x100
 8000d4a:	f423 0260 	bic.w	r2, r3, #14680064	@ 0xe00000
 8000d4e:	4905      	ldr	r1, [pc, #20]	@ (8000d64 <HAL_SBS_ETHInterfaceSelect+0x28>)
 8000d50:	687b      	ldr	r3, [r7, #4]
 8000d52:	4313      	orrs	r3, r2
 8000d54:	f8c1 3100 	str.w	r3, [r1, #256]	@ 0x100
 8000d58:	bf00      	nop
 8000d5a:	370c      	adds	r7, #12
 8000d5c:	46bd      	mov	sp, r7
 8000d5e:	f85d 7b04 	ldr.w	r7, [sp], #4
 8000d62:	4770      	bx	lr
 8000d64:	44000400 	.word	0x44000400

08000d68 <HAL_SBS_EnableVddIO1CompensationCell>:
 8000d68:	b480      	push	{r7}
 8000d6a:	af00      	add	r7, sp, #0
 8000d6c:	4b06      	ldr	r3, [pc, #24]	@ (8000d88 <HAL_SBS_EnableVddIO1CompensationCell+0x20>)
 8000d6e:	f8d3 3110 	ldr.w	r3, [r3, #272]	@ 0x110
 8000d72:	4a05      	ldr	r2, [pc, #20]	@ (8000d88 <HAL_SBS_EnableVddIO1CompensationCell+0x20>)
 8000d74:	f043 0301 	orr.w	r3, r3, #1
 8000d78:	f8c2 3110 	str.w	r3, [r2, #272]	@ 0x110
 8000d7c:	bf00      	nop
 8000d7e:	46bd      	mov	sp, r7
 8000d80:	f85d 7b04 	ldr.w	r7, [sp], #4
 8000d84:	4770      	bx	lr
 8000d86:	bf00      	nop
 8000d88:	44000400 	.word	0x44000400

08000d8c <HAL_SBS_DisableVddIO1CompensationCell>:
 8000d8c:	b480      	push	{r7}
 8000d8e:	af00      	add	r7, sp, #0
 8000d90:	4b06      	ldr	r3, [pc, #24]	@ (8000dac <HAL_SBS_DisableVddIO1CompensationCell+0x20>)
 8000d92:	f8d3 3110 	ldr.w	r3, [r3, #272]	@ 0x110
 8000d96:	4a05      	ldr	r2, [pc, #20]	@ (8000dac <HAL_SBS_DisableVddIO1CompensationCell+0x20>)
 8000d98:	f023 0301 	bic.w	r3, r3, #1
 8000d9c:	f8c2 3110 	str.w	r3, [r2, #272]	@ 0x110
 8000da0:	bf00      	nop
 8000da2:	46bd      	mov	sp, r7
 8000da4:	f85d 7b04 	ldr.w	r7, [sp], #4
 8000da8:	4770      	bx	lr
 8000daa:	bf00      	nop
 8000dac:	44000400 	.word	0x44000400

08000db0 <HAL_SBS_EnableVddIO2CompensationCell>:
 8000db0:	b480      	push	{r7}
 8000db2:	af00      	add	r7, sp, #0
 8000db4:	4b06      	ldr	r3, [pc, #24]	@ (8000dd0 <HAL_SBS_EnableVddIO2CompensationCell+0x20>)
 8000db6:	f8d3 3110 	ldr.w	r3, [r3, #272]	@ 0x110
 8000dba:	4a05      	ldr	r2, [pc, #20]	@ (8000dd0 <HAL_SBS_EnableVddIO2CompensationCell+0x20>)
 8000dbc:	f043 0304 	orr.w	r3, r3, #4
 8000dc0:	f8c2 3110 	str.w	r3, [r2, #272]	@ 0x110
 8000dc4:	bf00      	nop
 8000dc6:	46bd      	mov	sp, r7
 8000dc8:	f85d 7b04 	ldr.w	r7, [sp], #4
 8000dcc:	4770      	bx	lr
 8000dce:	bf00      	nop
 8000dd0:	44000400 	.word	0x44000400

08000dd4 <HAL_SBS_DisableVddIO2CompensationCell>:
 8000dd4:	b480      	push	{r7}
 8000dd6:	af00      	add	r7, sp, #0
 8000dd8:	4b06      	ldr	r3, [pc, #24]	@ (8000df4 <HAL_SBS_DisableVddIO2CompensationCell+0x20>)
 8000dda:	f8d3 3110 	ldr.w	r3, [r3, #272]	@ 0x110
 8000dde:	4a05      	ldr	r2, [pc, #20]	@ (8000df4 <HAL_SBS_DisableVddIO2CompensationCell+0x20>)
 8000de0:	f023 0304 	bic.w	r3, r3, #4
 8000de4:	f8c2 3110 	str.w	r3, [r2, #272]	@ 0x110
 8000de8:	bf00      	nop
 8000dea:	46bd      	mov	sp, r7
 8000dec:	f85d 7b04 	ldr.w	r7, [sp], #4
 8000df0:	4770      	bx	lr
 8000df2:	bf00      	nop
 8000df4:	44000400 	.word	0x44000400

08000df8 <HAL_SBS_VDDCompensationCodeSelect>:
 8000df8:	b480      	push	{r7}
 8000dfa:	b083      	sub	sp, #12
 8000dfc:	af00      	add	r7, sp, #0
 8000dfe:	6078      	str	r0, [r7, #4]
 8000e00:	4b07      	ldr	r3, [pc, #28]	@ (8000e20 <HAL_SBS_VDDCompensationCodeSelect+0x28>)
 8000e02:	f8d3 3110 	ldr.w	r3, [r3, #272]	@ 0x110
 8000e06:	f023 0202 	bic.w	r2, r3, #2
 8000e0a:	4905      	ldr	r1, [pc, #20]	@ (8000e20 <HAL_SBS_VDDCompensationCodeSelect+0x28>)
 8000e0c:	687b      	ldr	r3, [r7, #4]
 8000e0e:	4313      	orrs	r3, r2
 8000e10:	f8c1 3110 	str.w	r3, [r1, #272]	@ 0x110
 8000e14:	bf00      	nop
 8000e16:	370c      	adds	r7, #12
 8000e18:	46bd      	mov	sp, r7
 8000e1a:	f85d 7b04 	ldr.w	r7, [sp], #4
 8000e1e:	4770      	bx	lr
 8000e20:	44000400 	.word	0x44000400

08000e24 <HAL_SBS_VDDIOCompensationCodeSelect>:
 8000e24:	b480      	push	{r7}
 8000e26:	b083      	sub	sp, #12
 8000e28:	af00      	add	r7, sp, #0
 8000e2a:	6078      	str	r0, [r7, #4]
 8000e2c:	4b07      	ldr	r3, [pc, #28]	@ (8000e4c <HAL_SBS_VDDIOCompensationCodeSelect+0x28>)
 8000e2e:	f8d3 3110 	ldr.w	r3, [r3, #272]	@ 0x110
 8000e32:	f023 0208 	bic.w	r2, r3, #8
 8000e36:	4905      	ldr	r1, [pc, #20]	@ (8000e4c <HAL_SBS_VDDIOCompensationCodeSelect+0x28>)
 8000e38:	687b      	ldr	r3, [r7, #4]
 8000e3a:	4313      	orrs	r3, r2
 8000e3c:	f8c1 3110 	str.w	r3, [r1, #272]	@ 0x110
 8000e40:	bf00      	nop
 8000e42:	370c      	adds	r7, #12
 8000e44:	46bd      	mov	sp, r7
 8000e46:	f85d 7b04 	ldr.w	r7, [sp], #4
 8000e4a:	4770      	bx	lr
 8000e4c:	44000400 	.word	0x44000400

08000e50 <HAL_SBS_GetVddIO1CompensationCellReadyFlag>:
 8000e50:	b480      	push	{r7}
 8000e52:	af00      	add	r7, sp, #0
 8000e54:	4b07      	ldr	r3, [pc, #28]	@ (8000e74 <HAL_SBS_GetVddIO1CompensationCellReadyFlag+0x24>)
 8000e56:	f8d3 3110 	ldr.w	r3, [r3, #272]	@ 0x110
 8000e5a:	f403 7380 	and.w	r3, r3, #256	@ 0x100
 8000e5e:	f5b3 7f80 	cmp.w	r3, #256	@ 0x100
 8000e62:	d101      	bne.n	8000e68 <HAL_SBS_GetVddIO1CompensationCellReadyFlag+0x18>
 8000e64:	2301      	movs	r3, #1
 8000e66:	e000      	b.n	8000e6a <HAL_SBS_GetVddIO1CompensationCellReadyFlag+0x1a>
 8000e68:	2300      	movs	r3, #0
 8000e6a:	4618      	mov	r0, r3
 8000e6c:	46bd      	mov	sp, r7
 8000e6e:	f85d 7b04 	ldr.w	r7, [sp], #4
 8000e72:	4770      	bx	lr
 8000e74:	44000400 	.word	0x44000400

08000e78 <HAL_SBS_GetVddIO2CompensationCellReadyFlag>:
 8000e78:	b480      	push	{r7}
 8000e7a:	af00      	add	r7, sp, #0
 8000e7c:	4b07      	ldr	r3, [pc, #28]	@ (8000e9c <HAL_SBS_GetVddIO2CompensationCellReadyFlag+0x24>)
 8000e7e:	f8d3 3110 	ldr.w	r3, [r3, #272]	@ 0x110
 8000e82:	f403 7300 	and.w	r3, r3, #512	@ 0x200
 8000e86:	f5b3 7f00 	cmp.w	r3, #512	@ 0x200
 8000e8a:	d101      	bne.n	8000e90 <HAL_SBS_GetVddIO2CompensationCellReadyFlag+0x18>
 8000e8c:	2301      	movs	r3, #1
 8000e8e:	e000      	b.n	8000e92 <HAL_SBS_GetVddIO2CompensationCellReadyFlag+0x1a>
 8000e90:	2300      	movs	r3, #0
 8000e92:	4618      	mov	r0, r3
 8000e94:	46bd      	mov	sp, r7
 8000e96:	f85d 7b04 	ldr.w	r7, [sp], #4
 8000e9a:	4770      	bx	lr
 8000e9c:	44000400 	.word	0x44000400

08000ea0 <HAL_SBS_VDDCompensationCodeConfig>:
 8000ea0:	b480      	push	{r7}
 8000ea2:	b083      	sub	sp, #12
 8000ea4:	af00      	add	r7, sp, #0
 8000ea6:	6078      	str	r0, [r7, #4]
 8000ea8:	6039      	str	r1, [r7, #0]
 8000eaa:	4b09      	ldr	r3, [pc, #36]	@ (8000ed0 <HAL_SBS_VDDCompensationCodeConfig+0x30>)
 8000eac:	f8d3 3118 	ldr.w	r3, [r3, #280]	@ 0x118
 8000eb0:	f023 02ff 	bic.w	r2, r3, #255	@ 0xff
 8000eb4:	687b      	ldr	r3, [r7, #4]
 8000eb6:	0119      	lsls	r1, r3, #4
 8000eb8:	683b      	ldr	r3, [r7, #0]
 8000eba:	430b      	orrs	r3, r1
 8000ebc:	4904      	ldr	r1, [pc, #16]	@ (8000ed0 <HAL_SBS_VDDCompensationCodeConfig+0x30>)
 8000ebe:	4313      	orrs	r3, r2
 8000ec0:	f8c1 3118 	str.w	r3, [r1, #280]	@ 0x118
 8000ec4:	bf00      	nop
 8000ec6:	370c      	adds	r7, #12
 8000ec8:	46bd      	mov	sp, r7
 8000eca:	f85d 7b04 	ldr.w	r7, [sp], #4
 8000ece:	4770      	bx	lr
 8000ed0:	44000400 	.word	0x44000400

08000ed4 <HAL_SBS_VDDIOCompensationCodeConfig>:
 8000ed4:	b480      	push	{r7}
 8000ed6:	b083      	sub	sp, #12
 8000ed8:	af00      	add	r7, sp, #0
 8000eda:	6078      	str	r0, [r7, #4]
 8000edc:	6039      	str	r1, [r7, #0]
 8000ede:	4b0a      	ldr	r3, [pc, #40]	@ (8000f08 <HAL_SBS_VDDIOCompensationCodeConfig+0x34>)
 8000ee0:	f8d3 3118 	ldr.w	r3, [r3, #280]	@ 0x118
 8000ee4:	f423 427f 	bic.w	r2, r3, #65280	@ 0xff00
 8000ee8:	687b      	ldr	r3, [r7, #4]
 8000eea:	0319      	lsls	r1, r3, #12
 8000eec:	683b      	ldr	r3, [r7, #0]
 8000eee:	021b      	lsls	r3, r3, #8
 8000ef0:	430b      	orrs	r3, r1
 8000ef2:	4905      	ldr	r1, [pc, #20]	@ (8000f08 <HAL_SBS_VDDIOCompensationCodeConfig+0x34>)
 8000ef4:	4313      	orrs	r3, r2
 8000ef6:	f8c1 3118 	str.w	r3, [r1, #280]	@ 0x118
 8000efa:	bf00      	nop
 8000efc:	370c      	adds	r7, #12
 8000efe:	46bd      	mov	sp, r7
 8000f00:	f85d 7b04 	ldr.w	r7, [sp], #4
 8000f04:	4770      	bx	lr
 8000f06:	bf00      	nop
 8000f08:	44000400 	.word	0x44000400

08000f0c <HAL_SBS_GetNMOSVddCompensationValue>:
 8000f0c:	b480      	push	{r7}
 8000f0e:	af00      	add	r7, sp, #0
 8000f10:	4b04      	ldr	r3, [pc, #16]	@ (8000f24 <HAL_SBS_GetNMOSVddCompensationValue+0x18>)
 8000f12:	f8d3 3114 	ldr.w	r3, [r3, #276]	@ 0x114
 8000f16:	f003 030f 	and.w	r3, r3, #15
 8000f1a:	4618      	mov	r0, r3
 8000f1c:	46bd      	mov	sp, r7
 8000f1e:	f85d 7b04 	ldr.w	r7, [sp], #4
 8000f22:	4770      	bx	lr
 8000f24:	44000400 	.word	0x44000400

08000f28 <HAL_SBS_GetPMOSVddCompensationValue>:
 8000f28:	b480      	push	{r7}
 8000f2a:	af00      	add	r7, sp, #0
 8000f2c:	4b05      	ldr	r3, [pc, #20]	@ (8000f44 <HAL_SBS_GetPMOSVddCompensationValue+0x1c>)
 8000f2e:	f8d3 3114 	ldr.w	r3, [r3, #276]	@ 0x114
 8000f32:	091b      	lsrs	r3, r3, #4
 8000f34:	f003 030f 	and.w	r3, r3, #15
 8000f38:	4618      	mov	r0, r3
 8000f3a:	46bd      	mov	sp, r7
 8000f3c:	f85d 7b04 	ldr.w	r7, [sp], #4
 8000f40:	4770      	bx	lr
 8000f42:	bf00      	nop
 8000f44:	44000400 	.word	0x44000400

08000f48 <HAL_SBS_GetNMOSVddIO2CompensationValue>:
 8000f48:	b480      	push	{r7}
 8000f4a:	af00      	add	r7, sp, #0
 8000f4c:	4b05      	ldr	r3, [pc, #20]	@ (8000f64 <HAL_SBS_GetNMOSVddIO2CompensationValue+0x1c>)
 8000f4e:	f8d3 3114 	ldr.w	r3, [r3, #276]	@ 0x114
 8000f52:	0a1b      	lsrs	r3, r3, #8
 8000f54:	f003 030f 	and.w	r3, r3, #15
 8000f58:	4618      	mov	r0, r3
 8000f5a:	46bd      	mov	sp, r7
 8000f5c:	f85d 7b04 	ldr.w	r7, [sp], #4
 8000f60:	4770      	bx	lr
 8000f62:	bf00      	nop
 8000f64:	44000400 	.word	0x44000400

08000f68 <HAL_SBS_GetPMOSVddIO2CompensationValue>:
 8000f68:	b480      	push	{r7}
 8000f6a:	af00      	add	r7, sp, #0
 8000f6c:	4b05      	ldr	r3, [pc, #20]	@ (8000f84 <HAL_SBS_GetPMOSVddIO2CompensationValue+0x1c>)
 8000f6e:	f8d3 3114 	ldr.w	r3, [r3, #276]	@ 0x114
 8000f72:	0b1b      	lsrs	r3, r3, #12
 8000f74:	f003 030f 	and.w	r3, r3, #15
 8000f78:	4618      	mov	r0, r3
 8000f7a:	46bd      	mov	sp, r7
 8000f7c:	f85d 7b04 	ldr.w	r7, [sp], #4
 8000f80:	4770      	bx	lr
 8000f82:	bf00      	nop
 8000f84:	44000400 	.word	0x44000400

08000f88 <HAL_SBS_FLASH_DisableECCNMI>:
 8000f88:	b480      	push	{r7}
 8000f8a:	af00      	add	r7, sp, #0
 8000f8c:	4b06      	ldr	r3, [pc, #24]	@ (8000fa8 <HAL_SBS_FLASH_DisableECCNMI+0x20>)
 8000f8e:	f8d3 314c 	ldr.w	r3, [r3, #332]	@ 0x14c
 8000f92:	4a05      	ldr	r2, [pc, #20]	@ (8000fa8 <HAL_SBS_FLASH_DisableECCNMI+0x20>)
 8000f94:	f043 0301 	orr.w	r3, r3, #1
 8000f98:	f8c2 314c 	str.w	r3, [r2, #332]	@ 0x14c
 8000f9c:	bf00      	nop
 8000f9e:	46bd      	mov	sp, r7
 8000fa0:	f85d 7b04 	ldr.w	r7, [sp], #4
 8000fa4:	4770      	bx	lr
 8000fa6:	bf00      	nop
 8000fa8:	44000400 	.word	0x44000400

08000fac <HAL_SBS_FLASH_EnableECCNMI>:
 8000fac:	b480      	push	{r7}
 8000fae:	af00      	add	r7, sp, #0
 8000fb0:	4b06      	ldr	r3, [pc, #24]	@ (8000fcc <HAL_SBS_FLASH_EnableECCNMI+0x20>)
 8000fb2:	f8d3 314c 	ldr.w	r3, [r3, #332]	@ 0x14c
 8000fb6:	4a05      	ldr	r2, [pc, #20]	@ (8000fcc <HAL_SBS_FLASH_EnableECCNMI+0x20>)
 8000fb8:	f023 0301 	bic.w	r3, r3, #1
 8000fbc:	f8c2 314c 	str.w	r3, [r2, #332]	@ 0x14c
 8000fc0:	bf00      	nop
 8000fc2:	46bd      	mov	sp, r7
 8000fc4:	f85d 7b04 	ldr.w	r7, [sp], #4
 8000fc8:	4770      	bx	lr
 8000fca:	bf00      	nop
 8000fcc:	44000400 	.word	0x44000400

08000fd0 <HAL_SBS_FLASH_ECCNMI_IsDisabled>:
 8000fd0:	b480      	push	{r7}
 8000fd2:	af00      	add	r7, sp, #0
 8000fd4:	4b07      	ldr	r3, [pc, #28]	@ (8000ff4 <HAL_SBS_FLASH_ECCNMI_IsDisabled+0x24>)
 8000fd6:	f8d3 314c 	ldr.w	r3, [r3, #332]	@ 0x14c
 8000fda:	f003 0301 	and.w	r3, r3, #1
 8000fde:	2b01      	cmp	r3, #1
 8000fe0:	d101      	bne.n	8000fe6 <HAL_SBS_FLASH_ECCNMI_IsDisabled+0x16>
 8000fe2:	2301      	movs	r3, #1
 8000fe4:	e000      	b.n	8000fe8 <HAL_SBS_FLASH_ECCNMI_IsDisabled+0x18>
 8000fe6:	2300      	movs	r3, #0
 8000fe8:	4618      	mov	r0, r3
 8000fea:	46bd      	mov	sp, r7
 8000fec:	f85d 7b04 	ldr.w	r7, [sp], #4
 8000ff0:	4770      	bx	lr
 8000ff2:	bf00      	nop
 8000ff4:	44000400 	.word	0x44000400

08000ff8 <HAL_SBS_IncrementHDPLValue>:
 8000ff8:	b480      	push	{r7}
 8000ffa:	af00      	add	r7, sp, #0
 8000ffc:	4b06      	ldr	r3, [pc, #24]	@ (8001018 <HAL_SBS_IncrementHDPLValue+0x20>)
 8000ffe:	691b      	ldr	r3, [r3, #16]
 8001000:	f023 03ff 	bic.w	r3, r3, #255	@ 0xff
 8001004:	4a04      	ldr	r2, [pc, #16]	@ (8001018 <HAL_SBS_IncrementHDPLValue+0x20>)
 8001006:	f043 036a 	orr.w	r3, r3, #106	@ 0x6a
 800100a:	6113      	str	r3, [r2, #16]
 800100c:	bf00      	nop
 800100e:	46bd      	mov	sp, r7
 8001010:	f85d 7b04 	ldr.w	r7, [sp], #4
 8001014:	4770      	bx	lr
 8001016:	bf00      	nop
 8001018:	44000400 	.word	0x44000400

0800101c <HAL_SBS_GetHDPLValue>:
 800101c:	b480      	push	{r7}
 800101e:	af00      	add	r7, sp, #0
 8001020:	4b03      	ldr	r3, [pc, #12]	@ (8001030 <HAL_SBS_GetHDPLValue+0x14>)
 8001022:	695b      	ldr	r3, [r3, #20]
 8001024:	b2db      	uxtb	r3, r3
 8001026:	4618      	mov	r0, r3
 8001028:	46bd      	mov	sp, r7
 800102a:	f85d 7b04 	ldr.w	r7, [sp], #4
 800102e:	4770      	bx	lr
 8001030:	44000400 	.word	0x44000400

08001034 <HAL_SBS_EPOCHSelection>:
 8001034:	b480      	push	{r7}
 8001036:	b083      	sub	sp, #12
 8001038:	af00      	add	r7, sp, #0
 800103a:	6078      	str	r0, [r7, #4]
 800103c:	4b07      	ldr	r3, [pc, #28]	@ (800105c <HAL_SBS_EPOCHSelection+0x28>)
 800103e:	f8d3 30a0 	ldr.w	r3, [r3, #160]	@ 0xa0
 8001042:	f023 0203 	bic.w	r2, r3, #3
 8001046:	4905      	ldr	r1, [pc, #20]	@ (800105c <HAL_SBS_EPOCHSelection+0x28>)
 8001048:	687b      	ldr	r3, [r7, #4]
 800104a:	4313      	orrs	r3, r2
 800104c:	f8c1 30a0 	str.w	r3, [r1, #160]	@ 0xa0
 8001050:	bf00      	nop
 8001052:	370c      	adds	r7, #12
 8001054:	46bd      	mov	sp, r7
 8001056:	f85d 7b04 	ldr.w	r7, [sp], #4
 800105a:	4770      	bx	lr
 800105c:	44000400 	.word	0x44000400

08001060 <HAL_SBS_GetEPOCHSelection>:
 8001060:	b480      	push	{r7}
 8001062:	af00      	add	r7, sp, #0
 8001064:	4b04      	ldr	r3, [pc, #16]	@ (8001078 <HAL_SBS_GetEPOCHSelection+0x18>)
 8001066:	f8d3 30a0 	ldr.w	r3, [r3, #160]	@ 0xa0
 800106a:	f003 0303 	and.w	r3, r3, #3
 800106e:	4618      	mov	r0, r3
 8001070:	46bd      	mov	sp, r7
 8001072:	f85d 7b04 	ldr.w	r7, [sp], #4
 8001076:	4770      	bx	lr
 8001078:	44000400 	.word	0x44000400

0800107c <HAL_SBS_SetOBKHDPL>:
 800107c:	b480      	push	{r7}
 800107e:	b083      	sub	sp, #12
 8001080:	af00      	add	r7, sp, #0
 8001082:	6078      	str	r0, [r7, #4]
 8001084:	4b06      	ldr	r3, [pc, #24]	@ (80010a0 <HAL_SBS_SetOBKHDPL+0x24>)
 8001086:	699b      	ldr	r3, [r3, #24]
 8001088:	f023 0203 	bic.w	r2, r3, #3
 800108c:	4904      	ldr	r1, [pc, #16]	@ (80010a0 <HAL_SBS_SetOBKHDPL+0x24>)
 800108e:	687b      	ldr	r3, [r7, #4]
 8001090:	4313      	orrs	r3, r2
 8001092:	618b      	str	r3, [r1, #24]
 8001094:	bf00      	nop
 8001096:	370c      	adds	r7, #12
 8001098:	46bd      	mov	sp, r7
 800109a:	f85d 7b04 	ldr.w	r7, [sp], #4
 800109e:	4770      	bx	lr
 80010a0:	44000400 	.word	0x44000400

080010a4 <HAL_SBS_GetOBKHDPL>:
 80010a4:	b480      	push	{r7}
 80010a6:	af00      	add	r7, sp, #0
 80010a8:	4b04      	ldr	r3, [pc, #16]	@ (80010bc <HAL_SBS_GetOBKHDPL+0x18>)
 80010aa:	699b      	ldr	r3, [r3, #24]
 80010ac:	f003 0303 	and.w	r3, r3, #3
 80010b0:	4618      	mov	r0, r3
 80010b2:	46bd      	mov	sp, r7
 80010b4:	f85d 7b04 	ldr.w	r7, [sp], #4
 80010b8:	4770      	bx	lr
 80010ba:	bf00      	nop
 80010bc:	44000400 	.word	0x44000400

080010c0 <HAL_SBS_OpenAccessPort>:
 80010c0:	b480      	push	{r7}
 80010c2:	af00      	add	r7, sp, #0
 80010c4:	4b06      	ldr	r3, [pc, #24]	@ (80010e0 <HAL_SBS_OpenAccessPort+0x20>)
 80010c6:	6a1b      	ldr	r3, [r3, #32]
 80010c8:	f023 03ff 	bic.w	r3, r3, #255	@ 0xff
 80010cc:	4a04      	ldr	r2, [pc, #16]	@ (80010e0 <HAL_SBS_OpenAccessPort+0x20>)
 80010ce:	f043 03b4 	orr.w	r3, r3, #180	@ 0xb4
 80010d2:	6213      	str	r3, [r2, #32]
 80010d4:	bf00      	nop
 80010d6:	46bd      	mov	sp, r7
 80010d8:	f85d 7b04 	ldr.w	r7, [sp], #4
 80010dc:	4770      	bx	lr
 80010de:	bf00      	nop
 80010e0:	44000400 	.word	0x44000400

080010e4 <HAL_SBS_OpenDebug>:
 80010e4:	b480      	push	{r7}
 80010e6:	af00      	add	r7, sp, #0
 80010e8:	4b06      	ldr	r3, [pc, #24]	@ (8001104 <HAL_SBS_OpenDebug+0x20>)
 80010ea:	6a1b      	ldr	r3, [r3, #32]
 80010ec:	f423 437f 	bic.w	r3, r3, #65280	@ 0xff00
 80010f0:	4a04      	ldr	r2, [pc, #16]	@ (8001104 <HAL_SBS_OpenDebug+0x20>)
 80010f2:	f443 4334 	orr.w	r3, r3, #46080	@ 0xb400
 80010f6:	6213      	str	r3, [r2, #32]
 80010f8:	bf00      	nop
 80010fa:	46bd      	mov	sp, r7
 80010fc:	f85d 7b04 	ldr.w	r7, [sp], #4
 8001100:	4770      	bx	lr
 8001102:	bf00      	nop
 8001104:	44000400 	.word	0x44000400

08001108 <HAL_SBS_ConfigDebugLevel>:
 8001108:	b480      	push	{r7}
 800110a:	b083      	sub	sp, #12
 800110c:	af00      	add	r7, sp, #0
 800110e:	6078      	str	r0, [r7, #4]
 8001110:	687b      	ldr	r3, [r7, #4]
 8001112:	2bb4      	cmp	r3, #180	@ 0xb4
 8001114:	d00a      	beq.n	800112c <HAL_SBS_ConfigDebugLevel+0x24>
 8001116:	4b09      	ldr	r3, [pc, #36]	@ (800113c <HAL_SBS_ConfigDebugLevel+0x34>)
 8001118:	6a1b      	ldr	r3, [r3, #32]
 800111a:	f423 027f 	bic.w	r2, r3, #16711680	@ 0xff0000
 800111e:	687b      	ldr	r3, [r7, #4]
 8001120:	041b      	lsls	r3, r3, #16
 8001122:	4906      	ldr	r1, [pc, #24]	@ (800113c <HAL_SBS_ConfigDebugLevel+0x34>)
 8001124:	4313      	orrs	r3, r2
 8001126:	620b      	str	r3, [r1, #32]
 8001128:	2300      	movs	r3, #0
 800112a:	e000      	b.n	800112e <HAL_SBS_ConfigDebugLevel+0x26>
 800112c:	2301      	movs	r3, #1
 800112e:	4618      	mov	r0, r3
 8001130:	370c      	adds	r7, #12
 8001132:	46bd      	mov	sp, r7
 8001134:	f85d 7b04 	ldr.w	r7, [sp], #4
 8001138:	4770      	bx	lr
 800113a:	bf00      	nop
 800113c:	44000400 	.word	0x44000400

08001140 <HAL_SBS_GetDebugLevel>:
 8001140:	b480      	push	{r7}
 8001142:	af00      	add	r7, sp, #0
 8001144:	4b04      	ldr	r3, [pc, #16]	@ (8001158 <HAL_SBS_GetDebugLevel+0x18>)
 8001146:	6a1b      	ldr	r3, [r3, #32]
 8001148:	0c1b      	lsrs	r3, r3, #16
 800114a:	b2db      	uxtb	r3, r3
 800114c:	4618      	mov	r0, r3
 800114e:	46bd      	mov	sp, r7
 8001150:	f85d 7b04 	ldr.w	r7, [sp], #4
 8001154:	4770      	bx	lr
 8001156:	bf00      	nop
 8001158:	44000400 	.word	0x44000400

0800115c <HAL_SBS_LockDebugConfig>:
 800115c:	b480      	push	{r7}
 800115e:	af00      	add	r7, sp, #0
 8001160:	4b06      	ldr	r3, [pc, #24]	@ (800117c <HAL_SBS_LockDebugConfig+0x20>)
 8001162:	6a5b      	ldr	r3, [r3, #36]	@ 0x24
 8001164:	f023 03ff 	bic.w	r3, r3, #255	@ 0xff
 8001168:	4a04      	ldr	r2, [pc, #16]	@ (800117c <HAL_SBS_LockDebugConfig+0x20>)
 800116a:	f043 03c3 	orr.w	r3, r3, #195	@ 0xc3
 800116e:	6253      	str	r3, [r2, #36]	@ 0x24
 8001170:	bf00      	nop
 8001172:	46bd      	mov	sp, r7
 8001174:	f85d 7b04 	ldr.w	r7, [sp], #4
 8001178:	4770      	bx	lr
 800117a:	bf00      	nop
 800117c:	44000400 	.word	0x44000400

08001180 <HAL_SBS_ConfigDebugSecurity>:
 8001180:	b480      	push	{r7}
 8001182:	b083      	sub	sp, #12
 8001184:	af00      	add	r7, sp, #0
 8001186:	6078      	str	r0, [r7, #4]
 8001188:	4b07      	ldr	r3, [pc, #28]	@ (80011a8 <HAL_SBS_ConfigDebugSecurity+0x28>)
 800118a:	6a1b      	ldr	r3, [r3, #32]
 800118c:	f023 427f 	bic.w	r2, r3, #4278190080	@ 0xff000000
 8001190:	687b      	ldr	r3, [r7, #4]
 8001192:	061b      	lsls	r3, r3, #24
 8001194:	4904      	ldr	r1, [pc, #16]	@ (80011a8 <HAL_SBS_ConfigDebugSecurity+0x28>)
 8001196:	4313      	orrs	r3, r2
 8001198:	620b      	str	r3, [r1, #32]
 800119a:	bf00      	nop
 800119c:	370c      	adds	r7, #12
 800119e:	46bd      	mov	sp, r7
 80011a0:	f85d 7b04 	ldr.w	r7, [sp], #4
 80011a4:	4770      	bx	lr
 80011a6:	bf00      	nop
 80011a8:	44000400 	.word	0x44000400

080011ac <HAL_SBS_GetDebugSecurity>:
 80011ac:	b480      	push	{r7}
 80011ae:	af00      	add	r7, sp, #0
 80011b0:	4b04      	ldr	r3, [pc, #16]	@ (80011c4 <HAL_SBS_GetDebugSecurity+0x18>)
 80011b2:	6a1b      	ldr	r3, [r3, #32]
 80011b4:	0e1b      	lsrs	r3, r3, #24
 80011b6:	b2db      	uxtb	r3, r3
 80011b8:	4618      	mov	r0, r3
 80011ba:	46bd      	mov	sp, r7
 80011bc:	f85d 7b04 	ldr.w	r7, [sp], #4
 80011c0:	4770      	bx	lr
 80011c2:	bf00      	nop
 80011c4:	44000400 	.word	0x44000400

080011c8 <HAL_SBS_Lock>:
 80011c8:	b480      	push	{r7}
 80011ca:	b083      	sub	sp, #12
 80011cc:	af00      	add	r7, sp, #0
 80011ce:	6078      	str	r0, [r7, #4]
 80011d0:	4a05      	ldr	r2, [pc, #20]	@ (80011e8 <HAL_SBS_Lock+0x20>)
 80011d2:	687b      	ldr	r3, [r7, #4]
 80011d4:	b29b      	uxth	r3, r3
 80011d6:	f8c2 3144 	str.w	r3, [r2, #324]	@ 0x144
 80011da:	bf00      	nop
 80011dc:	370c      	adds	r7, #12
 80011de:	46bd      	mov	sp, r7
 80011e0:	f85d 7b04 	ldr.w	r7, [sp], #4
 80011e4:	4770      	bx	lr
 80011e6:	bf00      	nop
 80011e8:	44000400 	.word	0x44000400

080011ec <HAL_SBS_GetLock>:
 80011ec:	b480      	push	{r7}
 80011ee:	b085      	sub	sp, #20
 80011f0:	af00      	add	r7, sp, #0
 80011f2:	6078      	str	r0, [r7, #4]
 80011f4:	687b      	ldr	r3, [r7, #4]
 80011f6:	2b00      	cmp	r3, #0
 80011f8:	d101      	bne.n	80011fe <HAL_SBS_GetLock+0x12>
 80011fa:	2301      	movs	r3, #1
 80011fc:	e007      	b.n	800120e <HAL_SBS_GetLock+0x22>
 80011fe:	4b07      	ldr	r3, [pc, #28]	@ (800121c <HAL_SBS_GetLock+0x30>)
 8001200:	f8d3 3144 	ldr.w	r3, [r3, #324]	@ 0x144
 8001204:	60fb      	str	r3, [r7, #12]
 8001206:	687b      	ldr	r3, [r7, #4]
 8001208:	68fa      	ldr	r2, [r7, #12]
 800120a:	601a      	str	r2, [r3, #0]
 800120c:	2300      	movs	r3, #0
 800120e:	4618      	mov	r0, r3
 8001210:	3714      	adds	r7, #20
 8001212:	46bd      	mov	sp, r7
 8001214:	f85d 7b04 	ldr.w	r7, [sp], #4
 8001218:	4770      	bx	lr
 800121a:	bf00      	nop
 800121c:	44000400 	.word	0x44000400

08001220 <HAL_GPIO_Init>:
 8001220:	b480      	push	{r7}
 8001222:	b087      	sub	sp, #28
 8001224:	af00      	add	r7, sp, #0
 8001226:	6078      	str	r0, [r7, #4]
 8001228:	6039      	str	r1, [r7, #0]
 800122a:	2300      	movs	r3, #0
 800122c:	613b      	str	r3, [r7, #16]
 800122e:	e142      	b.n	80014b6 <HAL_GPIO_Init+0x296>
 8001230:	683b      	ldr	r3, [r7, #0]
 8001232:	681a      	ldr	r2, [r3, #0]
 8001234:	2101      	movs	r1, #1
 8001236:	693b      	ldr	r3, [r7, #16]
 8001238:	fa01 f303 	lsl.w	r3, r1, r3
 800123c:	4013      	ands	r3, r2
 800123e:	60fb      	str	r3, [r7, #12]
 8001240:	68fb      	ldr	r3, [r7, #12]
 8001242:	2b00      	cmp	r3, #0
 8001244:	f000 8134 	beq.w	80014b0 <HAL_GPIO_Init+0x290>
 8001248:	683b      	ldr	r3, [r7, #0]
 800124a:	685b      	ldr	r3, [r3, #4]
 800124c:	2b02      	cmp	r3, #2
 800124e:	d003      	beq.n	8001258 <HAL_GPIO_Init+0x38>
 8001250:	683b      	ldr	r3, [r7, #0]
 8001252:	685b      	ldr	r3, [r3, #4]
 8001254:	2b12      	cmp	r3, #18
 8001256:	d125      	bne.n	80012a4 <HAL_GPIO_Init+0x84>
 8001258:	693b      	ldr	r3, [r7, #16]
 800125a:	08da      	lsrs	r2, r3, #3
 800125c:	687b      	ldr	r3, [r7, #4]
 800125e:	3208      	adds	r2, #8
 8001260:	f853 3022 	ldr.w	r3, [r3, r2, lsl #2]
 8001264:	617b      	str	r3, [r7, #20]
 8001266:	693b      	ldr	r3, [r7, #16]
 8001268:	f003 0307 	and.w	r3, r3, #7
 800126c:	009b      	lsls	r3, r3, #2
 800126e:	220f      	movs	r2, #15
 8001270:	fa02 f303 	lsl.w	r3, r2, r3
 8001274:	43db      	mvns	r3, r3
 8001276:	697a      	ldr	r2, [r7, #20]
 8001278:	4013      	ands	r3, r2
 800127a:	617b      	str	r3, [r7, #20]
 800127c:	683b      	ldr	r3, [r7, #0]
 800127e:	691b      	ldr	r3, [r3, #16]
 8001280:	f003 020f 	and.w	r2, r3, #15
 8001284:	693b      	ldr	r3, [r7, #16]
 8001286:	f003 0307 	and.w	r3, r3, #7
 800128a:	009b      	lsls	r3, r3, #2
 800128c:	fa02 f303 	lsl.w	r3, r2, r3
 8001290:	697a      	ldr	r2, [r7, #20]
 8001292:	4313      	orrs	r3, r2
 8001294:	617b      	str	r3, [r7, #20]
 8001296:	693b      	ldr	r3, [r7, #16]
 8001298:	08da      	lsrs	r2, r3, #3
 800129a:	687b      	ldr	r3, [r7, #4]
 800129c:	3208      	adds	r2, #8
 800129e:	6979      	ldr	r1, [r7, #20]
 80012a0:	f843 1022 	str.w	r1, [r3, r2, lsl #2]
 80012a4:	687b      	ldr	r3, [r7, #4]
 80012a6:	681b      	ldr	r3, [r3, #0]
 80012a8:	617b      	str	r3, [r7, #20]
 80012aa:	693b      	ldr	r3, [r7, #16]
 80012ac:	005b      	lsls	r3, r3, #1
 80012ae:	2203      	movs	r2, #3
 80012b0:	fa02 f303 	lsl.w	r3, r2, r3
 80012b4:	43db      	mvns	r3, r3
 80012b6:	697a      	ldr	r2, [r7, #20]
 80012b8:	4013      	ands	r3, r2
 80012ba:	617b      	str	r3, [r7, #20]
 80012bc:	683b      	ldr	r3, [r7, #0]
 80012be:	685b      	ldr	r3, [r3, #4]
 80012c0:	f003 0203 	and.w	r2, r3, #3
 80012c4:	693b      	ldr	r3, [r7, #16]
 80012c6:	005b      	lsls	r3, r3, #1
 80012c8:	fa02 f303 	lsl.w	r3, r2, r3
 80012cc:	697a      	ldr	r2, [r7, #20]
 80012ce:	4313      	orrs	r3, r2
 80012d0:	617b      	str	r3, [r7, #20]
 80012d2:	687b      	ldr	r3, [r7, #4]
 80012d4:	697a      	ldr	r2, [r7, #20]
 80012d6:	601a      	str	r2, [r3, #0]
 80012d8:	683b      	ldr	r3, [r7, #0]
 80012da:	685b      	ldr	r3, [r3, #4]
 80012dc:	2b01      	cmp	r3, #1
 80012de:	d00b      	beq.n	80012f8 <HAL_GPIO_Init+0xd8>
 80012e0:	683b      	ldr	r3, [r7, #0]
 80012e2:	685b      	ldr	r3, [r3, #4]
 80012e4:	2b02      	cmp	r3, #2
 80012e6:	d007      	beq.n	80012f8 <HAL_GPIO_Init+0xd8>
 80012e8:	683b      	ldr	r3, [r7, #0]
 80012ea:	685b      	ldr	r3, [r3, #4]
 80012ec:	2b11      	cmp	r3, #17
 80012ee:	d003      	beq.n	80012f8 <HAL_GPIO_Init+0xd8>
 80012f0:	683b      	ldr	r3, [r7, #0]
 80012f2:	685b      	ldr	r3, [r3, #4]
 80012f4:	2b12      	cmp	r3, #18
 80012f6:	d130      	bne.n	800135a <HAL_GPIO_Init+0x13a>
 80012f8:	687b      	ldr	r3, [r7, #4]
 80012fa:	689b      	ldr	r3, [r3, #8]
 80012fc:	617b      	str	r3, [r7, #20]
 80012fe:	693b      	ldr	r3, [r7, #16]
 8001300:	005b      	lsls	r3, r3, #1
 8001302:	2203      	movs	r2, #3
 8001304:	fa02 f303 	lsl.w	r3, r2, r3
 8001308:	43db      	mvns	r3, r3
 800130a:	697a      	ldr	r2, [r7, #20]
 800130c:	4013      	ands	r3, r2
 800130e:	617b      	str	r3, [r7, #20]
 8001310:	683b      	ldr	r3, [r7, #0]
 8001312:	68da      	ldr	r2, [r3, #12]
 8001314:	693b      	ldr	r3, [r7, #16]
 8001316:	005b      	lsls	r3, r3, #1
 8001318:	fa02 f303 	lsl.w	r3, r2, r3
 800131c:	697a      	ldr	r2, [r7, #20]
 800131e:	4313      	orrs	r3, r2
 8001320:	617b      	str	r3, [r7, #20]
 8001322:	687b      	ldr	r3, [r7, #4]
 8001324:	697a      	ldr	r2, [r7, #20]
 8001326:	609a      	str	r2, [r3, #8]
 8001328:	687b      	ldr	r3, [r7, #4]
 800132a:	685b      	ldr	r3, [r3, #4]
 800132c:	617b      	str	r3, [r7, #20]
 800132e:	2201      	movs	r2, #1
 8001330:	693b      	ldr	r3, [r7, #16]
 8001332:	fa02 f303 	lsl.w	r3, r2, r3
 8001336:	43db      	mvns	r3, r3
 8001338:	697a      	ldr	r2, [r7, #20]
 800133a:	4013      	ands	r3, r2
 800133c:	617b      	str	r3, [r7, #20]
 800133e:	683b      	ldr	r3, [r7, #0]
 8001340:	685b      	ldr	r3, [r3, #4]
 8001342:	091b      	lsrs	r3, r3, #4
 8001344:	f003 0201 	and.w	r2, r3, #1
 8001348:	693b      	ldr	r3, [r7, #16]
 800134a:	fa02 f303 	lsl.w	r3, r2, r3
 800134e:	697a      	ldr	r2, [r7, #20]
 8001350:	4313      	orrs	r3, r2
 8001352:	617b      	str	r3, [r7, #20]
 8001354:	687b      	ldr	r3, [r7, #4]
 8001356:	697a      	ldr	r2, [r7, #20]
 8001358:	605a      	str	r2, [r3, #4]
 800135a:	683b      	ldr	r3, [r7, #0]
 800135c:	685b      	ldr	r3, [r3, #4]
 800135e:	f003 0303 	and.w	r3, r3, #3
 8001362:	2b03      	cmp	r3, #3
 8001364:	d109      	bne.n	800137a <HAL_GPIO_Init+0x15a>
 8001366:	683b      	ldr	r3, [r7, #0]
 8001368:	685b      	ldr	r3, [r3, #4]
 800136a:	f003 0303 	and.w	r3, r3, #3
 800136e:	2b03      	cmp	r3, #3
 8001370:	d11b      	bne.n	80013aa <HAL_GPIO_Init+0x18a>
 8001372:	683b      	ldr	r3, [r7, #0]
 8001374:	689b      	ldr	r3, [r3, #8]
 8001376:	2b01      	cmp	r3, #1
 8001378:	d017      	beq.n	80013aa <HAL_GPIO_Init+0x18a>
 800137a:	687b      	ldr	r3, [r7, #4]
 800137c:	68db      	ldr	r3, [r3, #12]
 800137e:	617b      	str	r3, [r7, #20]
 8001380:	693b      	ldr	r3, [r7, #16]
 8001382:	005b      	lsls	r3, r3, #1
 8001384:	2203      	movs	r2, #3
 8001386:	fa02 f303 	lsl.w	r3, r2, r3
 800138a:	43db      	mvns	r3, r3
 800138c:	697a      	ldr	r2, [r7, #20]
 800138e:	4013      	ands	r3, r2
 8001390:	617b      	str	r3, [r7, #20]
 8001392:	683b      	ldr	r3, [r7, #0]
 8001394:	689a      	ldr	r2, [r3, #8]
 8001396:	693b      	ldr	r3, [r7, #16]
 8001398:	005b      	lsls	r3, r3, #1
 800139a:	fa02 f303 	lsl.w	r3, r2, r3
 800139e:	697a      	ldr	r2, [r7, #20]
 80013a0:	4313      	orrs	r3, r2
 80013a2:	617b      	str	r3, [r7, #20]
 80013a4:	687b      	ldr	r3, [r7, #4]
 80013a6:	697a      	ldr	r2, [r7, #20]
 80013a8:	60da      	str	r2, [r3, #12]
 80013aa:	683b      	ldr	r3, [r7, #0]
 80013ac:	685b      	ldr	r3, [r3, #4]
 80013ae:	f003 5380 	and.w	r3, r3, #268435456	@ 0x10000000
 80013b2:	2b00      	cmp	r3, #0
 80013b4:	d07c      	beq.n	80014b0 <HAL_GPIO_Init+0x290>
 80013b6:	4a47      	ldr	r2, [pc, #284]	@ (80014d4 <HAL_GPIO_Init+0x2b4>)
 80013b8:	693b      	ldr	r3, [r7, #16]
 80013ba:	089b      	lsrs	r3, r3, #2
 80013bc:	3318      	adds	r3, #24
 80013be:	f852 3023 	ldr.w	r3, [r2, r3, lsl #2]
 80013c2:	617b      	str	r3, [r7, #20]
 80013c4:	693b      	ldr	r3, [r7, #16]
 80013c6:	f003 0303 	and.w	r3, r3, #3
 80013ca:	00db      	lsls	r3, r3, #3
 80013cc:	220f      	movs	r2, #15
 80013ce:	fa02 f303 	lsl.w	r3, r2, r3
 80013d2:	43db      	mvns	r3, r3
 80013d4:	697a      	ldr	r2, [r7, #20]
 80013d6:	4013      	ands	r3, r2
 80013d8:	617b      	str	r3, [r7, #20]
 80013da:	687b      	ldr	r3, [r7, #4]
 80013dc:	0a9a      	lsrs	r2, r3, #10
 80013de:	4b3e      	ldr	r3, [pc, #248]	@ (80014d8 <HAL_GPIO_Init+0x2b8>)
 80013e0:	4013      	ands	r3, r2
 80013e2:	693a      	ldr	r2, [r7, #16]
 80013e4:	f002 0203 	and.w	r2, r2, #3
 80013e8:	00d2      	lsls	r2, r2, #3
 80013ea:	4093      	lsls	r3, r2
 80013ec:	697a      	ldr	r2, [r7, #20]
 80013ee:	4313      	orrs	r3, r2
 80013f0:	617b      	str	r3, [r7, #20]
 80013f2:	4938      	ldr	r1, [pc, #224]	@ (80014d4 <HAL_GPIO_Init+0x2b4>)
 80013f4:	693b      	ldr	r3, [r7, #16]
 80013f6:	089b      	lsrs	r3, r3, #2
 80013f8:	3318      	adds	r3, #24
 80013fa:	697a      	ldr	r2, [r7, #20]
 80013fc:	f841 2023 	str.w	r2, [r1, r3, lsl #2]
 8001400:	4b34      	ldr	r3, [pc, #208]	@ (80014d4 <HAL_GPIO_Init+0x2b4>)
 8001402:	681b      	ldr	r3, [r3, #0]
 8001404:	617b      	str	r3, [r7, #20]
 8001406:	68fb      	ldr	r3, [r7, #12]
 8001408:	43db      	mvns	r3, r3
 800140a:	697a      	ldr	r2, [r7, #20]
 800140c:	4013      	ands	r3, r2
 800140e:	617b      	str	r3, [r7, #20]
 8001410:	683b      	ldr	r3, [r7, #0]
 8001412:	685b      	ldr	r3, [r3, #4]
 8001414:	f403 1380 	and.w	r3, r3, #1048576	@ 0x100000
 8001418:	2b00      	cmp	r3, #0
 800141a:	d003      	beq.n	8001424 <HAL_GPIO_Init+0x204>
 800141c:	697a      	ldr	r2, [r7, #20]
 800141e:	68fb      	ldr	r3, [r7, #12]
 8001420:	4313      	orrs	r3, r2
 8001422:	617b      	str	r3, [r7, #20]
 8001424:	4a2b      	ldr	r2, [pc, #172]	@ (80014d4 <HAL_GPIO_Init+0x2b4>)
 8001426:	697b      	ldr	r3, [r7, #20]
 8001428:	6013      	str	r3, [r2, #0]
 800142a:	4b2a      	ldr	r3, [pc, #168]	@ (80014d4 <HAL_GPIO_Init+0x2b4>)
 800142c:	685b      	ldr	r3, [r3, #4]
 800142e:	617b      	str	r3, [r7, #20]
 8001430:	68fb      	ldr	r3, [r7, #12]
 8001432:	43db      	mvns	r3, r3
 8001434:	697a      	ldr	r2, [r7, #20]
 8001436:	4013      	ands	r3, r2
 8001438:	617b      	str	r3, [r7, #20]
 800143a:	683b      	ldr	r3, [r7, #0]
 800143c:	685b      	ldr	r3, [r3, #4]
 800143e:	f403 1300 	and.w	r3, r3, #2097152	@ 0x200000
 8001442:	2b00      	cmp	r3, #0
 8001444:	d003      	beq.n	800144e <HAL_GPIO_Init+0x22e>
 8001446:	697a      	ldr	r2, [r7, #20]
 8001448:	68fb      	ldr	r3, [r7, #12]
 800144a:	4313      	orrs	r3, r2
 800144c:	617b      	str	r3, [r7, #20]
 800144e:	4a21      	ldr	r2, [pc, #132]	@ (80014d4 <HAL_GPIO_Init+0x2b4>)
 8001450:	697b      	ldr	r3, [r7, #20]
 8001452:	6053      	str	r3, [r2, #4]
 8001454:	4b1f      	ldr	r3, [pc, #124]	@ (80014d4 <HAL_GPIO_Init+0x2b4>)
 8001456:	f8d3 3084 	ldr.w	r3, [r3, #132]	@ 0x84
 800145a:	617b      	str	r3, [r7, #20]
 800145c:	68fb      	ldr	r3, [r7, #12]
 800145e:	43db      	mvns	r3, r3
 8001460:	697a      	ldr	r2, [r7, #20]
 8001462:	4013      	ands	r3, r2
 8001464:	617b      	str	r3, [r7, #20]
 8001466:	683b      	ldr	r3, [r7, #0]
 8001468:	685b      	ldr	r3, [r3, #4]
 800146a:	f403 3300 	and.w	r3, r3, #131072	@ 0x20000
 800146e:	2b00      	cmp	r3, #0
 8001470:	d003      	beq.n	800147a <HAL_GPIO_Init+0x25a>
 8001472:	697a      	ldr	r2, [r7, #20]
 8001474:	68fb      	ldr	r3, [r7, #12]
 8001476:	4313      	orrs	r3, r2
 8001478:	617b      	str	r3, [r7, #20]
 800147a:	4a16      	ldr	r2, [pc, #88]	@ (80014d4 <HAL_GPIO_Init+0x2b4>)
 800147c:	697b      	ldr	r3, [r7, #20]
 800147e:	f8c2 3084 	str.w	r3, [r2, #132]	@ 0x84
 8001482:	4b14      	ldr	r3, [pc, #80]	@ (80014d4 <HAL_GPIO_Init+0x2b4>)
 8001484:	f8d3 3080 	ldr.w	r3, [r3, #128]	@ 0x80
 8001488:	617b      	str	r3, [r7, #20]
 800148a:	68fb      	ldr	r3, [r7, #12]
 800148c:	43db      	mvns	r3, r3
 800148e:	697a      	ldr	r2, [r7, #20]
 8001490:	4013      	ands	r3, r2
 8001492:	617b      	str	r3, [r7, #20]
 8001494:	683b      	ldr	r3, [r7, #0]
 8001496:	685b      	ldr	r3, [r3, #4]
 8001498:	f403 3380 	and.w	r3, r3, #65536	@ 0x10000
 800149c:	2b00      	cmp	r3, #0
 800149e:	d003      	beq.n	80014a8 <HAL_GPIO_Init+0x288>
 80014a0:	697a      	ldr	r2, [r7, #20]
 80014a2:	68fb      	ldr	r3, [r7, #12]
 80014a4:	4313      	orrs	r3, r2
 80014a6:	617b      	str	r3, [r7, #20]
 80014a8:	4a0a      	ldr	r2, [pc, #40]	@ (80014d4 <HAL_GPIO_Init+0x2b4>)
 80014aa:	697b      	ldr	r3, [r7, #20]
 80014ac:	f8c2 3080 	str.w	r3, [r2, #128]	@ 0x80
 80014b0:	693b      	ldr	r3, [r7, #16]
 80014b2:	3301      	adds	r3, #1
 80014b4:	613b      	str	r3, [r7, #16]
 80014b6:	683b      	ldr	r3, [r7, #0]
 80014b8:	681a      	ldr	r2, [r3, #0]
 80014ba:	693b      	ldr	r3, [r7, #16]
 80014bc:	fa22 f303 	lsr.w	r3, r2, r3
 80014c0:	2b00      	cmp	r3, #0
 80014c2:	f47f aeb5 	bne.w	8001230 <HAL_GPIO_Init+0x10>
 80014c6:	bf00      	nop
 80014c8:	bf00      	nop
 80014ca:	371c      	adds	r7, #28
 80014cc:	46bd      	mov	sp, r7
 80014ce:	f85d 7b04 	ldr.w	r7, [sp], #4
 80014d2:	4770      	bx	lr
 80014d4:	44022000 	.word	0x44022000
 80014d8:	002f7f7f 	.word	0x002f7f7f

080014dc <HAL_GPIO_DeInit>:
 80014dc:	b480      	push	{r7}
 80014de:	b087      	sub	sp, #28
 80014e0:	af00      	add	r7, sp, #0
 80014e2:	6078      	str	r0, [r7, #4]
 80014e4:	6039      	str	r1, [r7, #0]
 80014e6:	2300      	movs	r3, #0
 80014e8:	617b      	str	r3, [r7, #20]
 80014ea:	e0a0      	b.n	800162e <HAL_GPIO_DeInit+0x152>
 80014ec:	2201      	movs	r2, #1
 80014ee:	697b      	ldr	r3, [r7, #20]
 80014f0:	fa02 f303 	lsl.w	r3, r2, r3
 80014f4:	683a      	ldr	r2, [r7, #0]
 80014f6:	4013      	ands	r3, r2
 80014f8:	613b      	str	r3, [r7, #16]
 80014fa:	693b      	ldr	r3, [r7, #16]
 80014fc:	2b00      	cmp	r3, #0
 80014fe:	f000 8093 	beq.w	8001628 <HAL_GPIO_DeInit+0x14c>
 8001502:	4a52      	ldr	r2, [pc, #328]	@ (800164c <HAL_GPIO_DeInit+0x170>)
 8001504:	697b      	ldr	r3, [r7, #20]
 8001506:	089b      	lsrs	r3, r3, #2
 8001508:	3318      	adds	r3, #24
 800150a:	f852 3023 	ldr.w	r3, [r2, r3, lsl #2]
 800150e:	60fb      	str	r3, [r7, #12]
 8001510:	697b      	ldr	r3, [r7, #20]
 8001512:	f003 0303 	and.w	r3, r3, #3
 8001516:	00db      	lsls	r3, r3, #3
 8001518:	220f      	movs	r2, #15
 800151a:	fa02 f303 	lsl.w	r3, r2, r3
 800151e:	68fa      	ldr	r2, [r7, #12]
 8001520:	4013      	ands	r3, r2
 8001522:	60fb      	str	r3, [r7, #12]
 8001524:	687b      	ldr	r3, [r7, #4]
 8001526:	0a9a      	lsrs	r2, r3, #10
 8001528:	4b49      	ldr	r3, [pc, #292]	@ (8001650 <HAL_GPIO_DeInit+0x174>)
 800152a:	4013      	ands	r3, r2
 800152c:	697a      	ldr	r2, [r7, #20]
 800152e:	f002 0203 	and.w	r2, r2, #3
 8001532:	00d2      	lsls	r2, r2, #3
 8001534:	4093      	lsls	r3, r2
 8001536:	68fa      	ldr	r2, [r7, #12]
 8001538:	429a      	cmp	r2, r3
 800153a:	d136      	bne.n	80015aa <HAL_GPIO_DeInit+0xce>
 800153c:	4b43      	ldr	r3, [pc, #268]	@ (800164c <HAL_GPIO_DeInit+0x170>)
 800153e:	f8d3 2080 	ldr.w	r2, [r3, #128]	@ 0x80
 8001542:	693b      	ldr	r3, [r7, #16]
 8001544:	43db      	mvns	r3, r3
 8001546:	4941      	ldr	r1, [pc, #260]	@ (800164c <HAL_GPIO_DeInit+0x170>)
 8001548:	4013      	ands	r3, r2
 800154a:	f8c1 3080 	str.w	r3, [r1, #128]	@ 0x80
 800154e:	4b3f      	ldr	r3, [pc, #252]	@ (800164c <HAL_GPIO_DeInit+0x170>)
 8001550:	f8d3 2084 	ldr.w	r2, [r3, #132]	@ 0x84
 8001554:	693b      	ldr	r3, [r7, #16]
 8001556:	43db      	mvns	r3, r3
 8001558:	493c      	ldr	r1, [pc, #240]	@ (800164c <HAL_GPIO_DeInit+0x170>)
 800155a:	4013      	ands	r3, r2
 800155c:	f8c1 3084 	str.w	r3, [r1, #132]	@ 0x84
 8001560:	4b3a      	ldr	r3, [pc, #232]	@ (800164c <HAL_GPIO_DeInit+0x170>)
 8001562:	681a      	ldr	r2, [r3, #0]
 8001564:	693b      	ldr	r3, [r7, #16]
 8001566:	43db      	mvns	r3, r3
 8001568:	4938      	ldr	r1, [pc, #224]	@ (800164c <HAL_GPIO_DeInit+0x170>)
 800156a:	4013      	ands	r3, r2
 800156c:	600b      	str	r3, [r1, #0]
 800156e:	4b37      	ldr	r3, [pc, #220]	@ (800164c <HAL_GPIO_DeInit+0x170>)
 8001570:	685a      	ldr	r2, [r3, #4]
 8001572:	693b      	ldr	r3, [r7, #16]
 8001574:	43db      	mvns	r3, r3
 8001576:	4935      	ldr	r1, [pc, #212]	@ (800164c <HAL_GPIO_DeInit+0x170>)
 8001578:	4013      	ands	r3, r2
 800157a:	604b      	str	r3, [r1, #4]
 800157c:	697b      	ldr	r3, [r7, #20]
 800157e:	f003 0303 	and.w	r3, r3, #3
 8001582:	00db      	lsls	r3, r3, #3
 8001584:	220f      	movs	r2, #15
 8001586:	fa02 f303 	lsl.w	r3, r2, r3
 800158a:	60fb      	str	r3, [r7, #12]
 800158c:	4a2f      	ldr	r2, [pc, #188]	@ (800164c <HAL_GPIO_DeInit+0x170>)
 800158e:	697b      	ldr	r3, [r7, #20]
 8001590:	089b      	lsrs	r3, r3, #2
 8001592:	3318      	adds	r3, #24
 8001594:	f852 1023 	ldr.w	r1, [r2, r3, lsl #2]
 8001598:	68fb      	ldr	r3, [r7, #12]
 800159a:	43da      	mvns	r2, r3
 800159c:	482b      	ldr	r0, [pc, #172]	@ (800164c <HAL_GPIO_DeInit+0x170>)
 800159e:	697b      	ldr	r3, [r7, #20]
 80015a0:	089b      	lsrs	r3, r3, #2
 80015a2:	400a      	ands	r2, r1
 80015a4:	3318      	adds	r3, #24
 80015a6:	f840 2023 	str.w	r2, [r0, r3, lsl #2]
 80015aa:	687b      	ldr	r3, [r7, #4]
 80015ac:	681a      	ldr	r2, [r3, #0]
 80015ae:	697b      	ldr	r3, [r7, #20]
 80015b0:	005b      	lsls	r3, r3, #1
 80015b2:	2103      	movs	r1, #3
 80015b4:	fa01 f303 	lsl.w	r3, r1, r3
 80015b8:	431a      	orrs	r2, r3
 80015ba:	687b      	ldr	r3, [r7, #4]
 80015bc:	601a      	str	r2, [r3, #0]
 80015be:	697b      	ldr	r3, [r7, #20]
 80015c0:	08da      	lsrs	r2, r3, #3
 80015c2:	687b      	ldr	r3, [r7, #4]
 80015c4:	3208      	adds	r2, #8
 80015c6:	f853 1022 	ldr.w	r1, [r3, r2, lsl #2]
 80015ca:	697b      	ldr	r3, [r7, #20]
 80015cc:	f003 0307 	and.w	r3, r3, #7
 80015d0:	009b      	lsls	r3, r3, #2
 80015d2:	220f      	movs	r2, #15
 80015d4:	fa02 f303 	lsl.w	r3, r2, r3
 80015d8:	43db      	mvns	r3, r3
 80015da:	697a      	ldr	r2, [r7, #20]
 80015dc:	08d2      	lsrs	r2, r2, #3
 80015de:	4019      	ands	r1, r3
 80015e0:	687b      	ldr	r3, [r7, #4]
 80015e2:	3208      	adds	r2, #8
 80015e4:	f843 1022 	str.w	r1, [r3, r2, lsl #2]
 80015e8:	687b      	ldr	r3, [r7, #4]
 80015ea:	689a      	ldr	r2, [r3, #8]
 80015ec:	697b      	ldr	r3, [r7, #20]
 80015ee:	005b      	lsls	r3, r3, #1
 80015f0:	2103      	movs	r1, #3
 80015f2:	fa01 f303 	lsl.w	r3, r1, r3
 80015f6:	43db      	mvns	r3, r3
 80015f8:	401a      	ands	r2, r3
 80015fa:	687b      	ldr	r3, [r7, #4]
 80015fc:	609a      	str	r2, [r3, #8]
 80015fe:	687b      	ldr	r3, [r7, #4]
 8001600:	685a      	ldr	r2, [r3, #4]
 8001602:	2101      	movs	r1, #1
 8001604:	697b      	ldr	r3, [r7, #20]
 8001606:	fa01 f303 	lsl.w	r3, r1, r3
 800160a:	43db      	mvns	r3, r3
 800160c:	401a      	ands	r2, r3
 800160e:	687b      	ldr	r3, [r7, #4]
 8001610:	605a      	str	r2, [r3, #4]
 8001612:	687b      	ldr	r3, [r7, #4]
 8001614:	68da      	ldr	r2, [r3, #12]
 8001616:	697b      	ldr	r3, [r7, #20]
 8001618:	005b      	lsls	r3, r3, #1
 800161a:	2103      	movs	r1, #3
 800161c:	fa01 f303 	lsl.w	r3, r1, r3
 8001620:	43db      	mvns	r3, r3
 8001622:	401a      	ands	r2, r3
 8001624:	687b      	ldr	r3, [r7, #4]
 8001626:	60da      	str	r2, [r3, #12]
 8001628:	697b      	ldr	r3, [r7, #20]
 800162a:	3301      	adds	r3, #1
 800162c:	617b      	str	r3, [r7, #20]
 800162e:	683a      	ldr	r2, [r7, #0]
 8001630:	697b      	ldr	r3, [r7, #20]
 8001632:	fa22 f303 	lsr.w	r3, r2, r3
 8001636:	2b00      	cmp	r3, #0
 8001638:	f47f af58 	bne.w	80014ec <HAL_GPIO_DeInit+0x10>
 800163c:	bf00      	nop
 800163e:	bf00      	nop
 8001640:	371c      	adds	r7, #28
 8001642:	46bd      	mov	sp, r7
 8001644:	f85d 7b04 	ldr.w	r7, [sp], #4
 8001648:	4770      	bx	lr
 800164a:	bf00      	nop
 800164c:	44022000 	.word	0x44022000
 8001650:	002f7f7f 	.word	0x002f7f7f

08001654 <HAL_GPIO_ReadPin>:
 8001654:	b480      	push	{r7}
 8001656:	b085      	sub	sp, #20
 8001658:	af00      	add	r7, sp, #0
 800165a:	6078      	str	r0, [r7, #4]
 800165c:	460b      	mov	r3, r1
 800165e:	807b      	strh	r3, [r7, #2]
 8001660:	687b      	ldr	r3, [r7, #4]
 8001662:	691a      	ldr	r2, [r3, #16]
 8001664:	887b      	ldrh	r3, [r7, #2]
 8001666:	4013      	ands	r3, r2
 8001668:	2b00      	cmp	r3, #0
 800166a:	d002      	beq.n	8001672 <HAL_GPIO_ReadPin+0x1e>
 800166c:	2301      	movs	r3, #1
 800166e:	73fb      	strb	r3, [r7, #15]
 8001670:	e001      	b.n	8001676 <HAL_GPIO_ReadPin+0x22>
 8001672:	2300      	movs	r3, #0
 8001674:	73fb      	strb	r3, [r7, #15]
 8001676:	7bfb      	ldrb	r3, [r7, #15]
 8001678:	4618      	mov	r0, r3
 800167a:	3714      	adds	r7, #20
 800167c:	46bd      	mov	sp, r7
 800167e:	f85d 7b04 	ldr.w	r7, [sp], #4
 8001682:	4770      	bx	lr

08001684 <HAL_GPIO_WritePin>:
 8001684:	b480      	push	{r7}
 8001686:	b083      	sub	sp, #12
 8001688:	af00      	add	r7, sp, #0
 800168a:	6078      	str	r0, [r7, #4]
 800168c:	460b      	mov	r3, r1
 800168e:	807b      	strh	r3, [r7, #2]
 8001690:	4613      	mov	r3, r2
 8001692:	707b      	strb	r3, [r7, #1]
 8001694:	787b      	ldrb	r3, [r7, #1]
 8001696:	2b00      	cmp	r3, #0
 8001698:	d003      	beq.n	80016a2 <HAL_GPIO_WritePin+0x1e>
 800169a:	887a      	ldrh	r2, [r7, #2]
 800169c:	687b      	ldr	r3, [r7, #4]
 800169e:	619a      	str	r2, [r3, #24]
 80016a0:	e002      	b.n	80016a8 <HAL_GPIO_WritePin+0x24>
 80016a2:	887a      	ldrh	r2, [r7, #2]
 80016a4:	687b      	ldr	r3, [r7, #4]
 80016a6:	629a      	str	r2, [r3, #40]	@ 0x28
 80016a8:	bf00      	nop
 80016aa:	370c      	adds	r7, #12
 80016ac:	46bd      	mov	sp, r7
 80016ae:	f85d 7b04 	ldr.w	r7, [sp], #4
 80016b2:	4770      	bx	lr

080016b4 <HAL_GPIO_WriteMultipleStatePin>:
 80016b4:	b480      	push	{r7}
 80016b6:	b085      	sub	sp, #20
 80016b8:	af00      	add	r7, sp, #0
 80016ba:	6078      	str	r0, [r7, #4]
 80016bc:	460b      	mov	r3, r1
 80016be:	807b      	strh	r3, [r7, #2]
 80016c0:	4613      	mov	r3, r2
 80016c2:	803b      	strh	r3, [r7, #0]
 80016c4:	887b      	ldrh	r3, [r7, #2]
 80016c6:	041a      	lsls	r2, r3, #16
 80016c8:	883b      	ldrh	r3, [r7, #0]
 80016ca:	4313      	orrs	r3, r2
 80016cc:	60fb      	str	r3, [r7, #12]
 80016ce:	687b      	ldr	r3, [r7, #4]
 80016d0:	68fa      	ldr	r2, [r7, #12]
 80016d2:	619a      	str	r2, [r3, #24]
 80016d4:	bf00      	nop
 80016d6:	3714      	adds	r7, #20
 80016d8:	46bd      	mov	sp, r7
 80016da:	f85d 7b04 	ldr.w	r7, [sp], #4
 80016de:	4770      	bx	lr

080016e0 <HAL_GPIO_TogglePin>:
 80016e0:	b480      	push	{r7}
 80016e2:	b085      	sub	sp, #20
 80016e4:	af00      	add	r7, sp, #0
 80016e6:	6078      	str	r0, [r7, #4]
 80016e8:	460b      	mov	r3, r1
 80016ea:	807b      	strh	r3, [r7, #2]
 80016ec:	687b      	ldr	r3, [r7, #4]
 80016ee:	695b      	ldr	r3, [r3, #20]
 80016f0:	60fb      	str	r3, [r7, #12]
 80016f2:	887a      	ldrh	r2, [r7, #2]
 80016f4:	68fb      	ldr	r3, [r7, #12]
 80016f6:	4013      	ands	r3, r2
 80016f8:	041a      	lsls	r2, r3, #16
 80016fa:	68fb      	ldr	r3, [r7, #12]
 80016fc:	43d9      	mvns	r1, r3
 80016fe:	887b      	ldrh	r3, [r7, #2]
 8001700:	400b      	ands	r3, r1
 8001702:	431a      	orrs	r2, r3
 8001704:	687b      	ldr	r3, [r7, #4]
 8001706:	619a      	str	r2, [r3, #24]
 8001708:	bf00      	nop
 800170a:	3714      	adds	r7, #20
 800170c:	46bd      	mov	sp, r7
 800170e:	f85d 7b04 	ldr.w	r7, [sp], #4
 8001712:	4770      	bx	lr

08001714 <HAL_GPIO_LockPin>:
 8001714:	b480      	push	{r7}
 8001716:	b085      	sub	sp, #20
 8001718:	af00      	add	r7, sp, #0
 800171a:	6078      	str	r0, [r7, #4]
 800171c:	460b      	mov	r3, r1
 800171e:	807b      	strh	r3, [r7, #2]
 8001720:	f44f 3380 	mov.w	r3, #65536	@ 0x10000
 8001724:	60fb      	str	r3, [r7, #12]
 8001726:	887a      	ldrh	r2, [r7, #2]
 8001728:	68fb      	ldr	r3, [r7, #12]
 800172a:	4313      	orrs	r3, r2
 800172c:	60fb      	str	r3, [r7, #12]
 800172e:	68fa      	ldr	r2, [r7, #12]
 8001730:	687b      	ldr	r3, [r7, #4]
 8001732:	61da      	str	r2, [r3, #28]
 8001734:	887a      	ldrh	r2, [r7, #2]
 8001736:	687b      	ldr	r3, [r7, #4]
 8001738:	61da      	str	r2, [r3, #28]
 800173a:	68fa      	ldr	r2, [r7, #12]
 800173c:	687b      	ldr	r3, [r7, #4]
 800173e:	61da      	str	r2, [r3, #28]
 8001740:	687b      	ldr	r3, [r7, #4]
 8001742:	69db      	ldr	r3, [r3, #28]
 8001744:	60fb      	str	r3, [r7, #12]
 8001746:	687b      	ldr	r3, [r7, #4]
 8001748:	69db      	ldr	r3, [r3, #28]
 800174a:	f403 3380 	and.w	r3, r3, #65536	@ 0x10000
 800174e:	f5b3 3f80 	cmp.w	r3, #65536	@ 0x10000
 8001752:	d001      	beq.n	8001758 <HAL_GPIO_LockPin+0x44>
 8001754:	2301      	movs	r3, #1
 8001756:	e000      	b.n	800175a <HAL_GPIO_LockPin+0x46>
 8001758:	2300      	movs	r3, #0
 800175a:	4618      	mov	r0, r3
 800175c:	3714      	adds	r7, #20
 800175e:	46bd      	mov	sp, r7
 8001760:	f85d 7b04 	ldr.w	r7, [sp], #4
 8001764:	4770      	bx	lr

08001766 <HAL_GPIO_EnableHighSPeedLowVoltage>:
 8001766:	b480      	push	{r7}
 8001768:	b083      	sub	sp, #12
 800176a:	af00      	add	r7, sp, #0
 800176c:	6078      	str	r0, [r7, #4]
 800176e:	460b      	mov	r3, r1
 8001770:	807b      	strh	r3, [r7, #2]
 8001772:	687b      	ldr	r3, [r7, #4]
 8001774:	6ada      	ldr	r2, [r3, #44]	@ 0x2c
 8001776:	887b      	ldrh	r3, [r7, #2]
 8001778:	431a      	orrs	r2, r3
 800177a:	687b      	ldr	r3, [r7, #4]
 800177c:	62da      	str	r2, [r3, #44]	@ 0x2c
 800177e:	bf00      	nop
 8001780:	370c      	adds	r7, #12
 8001782:	46bd      	mov	sp, r7
 8001784:	f85d 7b04 	ldr.w	r7, [sp], #4
 8001788:	4770      	bx	lr

0800178a <HAL_GPIO_DisableHighSPeedLowVoltage>:
 800178a:	b480      	push	{r7}
 800178c:	b083      	sub	sp, #12
 800178e:	af00      	add	r7, sp, #0
 8001790:	6078      	str	r0, [r7, #4]
 8001792:	460b      	mov	r3, r1
 8001794:	807b      	strh	r3, [r7, #2]
 8001796:	687b      	ldr	r3, [r7, #4]
 8001798:	6adb      	ldr	r3, [r3, #44]	@ 0x2c
 800179a:	887a      	ldrh	r2, [r7, #2]
 800179c:	43d2      	mvns	r2, r2
 800179e:	401a      	ands	r2, r3
 80017a0:	687b      	ldr	r3, [r7, #4]
 80017a2:	62da      	str	r2, [r3, #44]	@ 0x2c
 80017a4:	bf00      	nop
 80017a6:	370c      	adds	r7, #12
 80017a8:	46bd      	mov	sp, r7
 80017aa:	f85d 7b04 	ldr.w	r7, [sp], #4
 80017ae:	4770      	bx	lr

080017b0 <HAL_GPIO_EXTI_IRQHandler>:
 80017b0:	b580      	push	{r7, lr}
 80017b2:	b082      	sub	sp, #8
 80017b4:	af00      	add	r7, sp, #0
 80017b6:	4603      	mov	r3, r0
 80017b8:	80fb      	strh	r3, [r7, #6]
 80017ba:	4b0f      	ldr	r3, [pc, #60]	@ (80017f8 <HAL_GPIO_EXTI_IRQHandler+0x48>)
 80017bc:	68da      	ldr	r2, [r3, #12]
 80017be:	88fb      	ldrh	r3, [r7, #6]
 80017c0:	4013      	ands	r3, r2
 80017c2:	2b00      	cmp	r3, #0
 80017c4:	d006      	beq.n	80017d4 <HAL_GPIO_EXTI_IRQHandler+0x24>
 80017c6:	4a0c      	ldr	r2, [pc, #48]	@ (80017f8 <HAL_GPIO_EXTI_IRQHandler+0x48>)
 80017c8:	88fb      	ldrh	r3, [r7, #6]
 80017ca:	60d3      	str	r3, [r2, #12]
 80017cc:	88fb      	ldrh	r3, [r7, #6]
 80017ce:	4618      	mov	r0, r3
 80017d0:	f000 f814 	bl	80017fc <HAL_GPIO_EXTI_Rising_Callback>
 80017d4:	4b08      	ldr	r3, [pc, #32]	@ (80017f8 <HAL_GPIO_EXTI_IRQHandler+0x48>)
 80017d6:	691a      	ldr	r2, [r3, #16]
 80017d8:	88fb      	ldrh	r3, [r7, #6]
 80017da:	4013      	ands	r3, r2
 80017dc:	2b00      	cmp	r3, #0
 80017de:	d006      	beq.n	80017ee <HAL_GPIO_EXTI_IRQHandler+0x3e>
 80017e0:	4a05      	ldr	r2, [pc, #20]	@ (80017f8 <HAL_GPIO_EXTI_IRQHandler+0x48>)
 80017e2:	88fb      	ldrh	r3, [r7, #6]
 80017e4:	6113      	str	r3, [r2, #16]
 80017e6:	88fb      	ldrh	r3, [r7, #6]
 80017e8:	4618      	mov	r0, r3
 80017ea:	f000 f812 	bl	8001812 <HAL_GPIO_EXTI_Falling_Callback>
 80017ee:	bf00      	nop
 80017f0:	3708      	adds	r7, #8
 80017f2:	46bd      	mov	sp, r7
 80017f4:	bd80      	pop	{r7, pc}
 80017f6:	bf00      	nop
 80017f8:	44022000 	.word	0x44022000

080017fc <HAL_GPIO_EXTI_Rising_Callback>:
 80017fc:	b480      	push	{r7}
 80017fe:	b083      	sub	sp, #12
 8001800:	af00      	add	r7, sp, #0
 8001802:	4603      	mov	r3, r0
 8001804:	80fb      	strh	r3, [r7, #6]
 8001806:	bf00      	nop
 8001808:	370c      	adds	r7, #12
 800180a:	46bd      	mov	sp, r7
 800180c:	f85d 7b04 	ldr.w	r7, [sp], #4
 8001810:	4770      	bx	lr

08001812 <HAL_GPIO_EXTI_Falling_Callback>:
 8001812:	b480      	push	{r7}
 8001814:	b083      	sub	sp, #12
 8001816:	af00      	add	r7, sp, #0
 8001818:	4603      	mov	r3, r0
 800181a:	80fb      	strh	r3, [r7, #6]
 800181c:	bf00      	nop
 800181e:	370c      	adds	r7, #12
 8001820:	46bd      	mov	sp, r7
 8001822:	f85d 7b04 	ldr.w	r7, [sp], #4
 8001826:	4770      	bx	lr

08001828 <HAL_RCC_DeInit>:
 8001828:	b580      	push	{r7, lr}
 800182a:	b082      	sub	sp, #8
 800182c:	af00      	add	r7, sp, #0
 800182e:	4b85      	ldr	r3, [pc, #532]	@ (8001a44 <HAL_RCC_DeInit+0x21c>)
 8001830:	681b      	ldr	r3, [r3, #0]
 8001832:	f003 030f 	and.w	r3, r3, #15
 8001836:	2b02      	cmp	r3, #2
 8001838:	d80f      	bhi.n	800185a <HAL_RCC_DeInit+0x32>
 800183a:	4b82      	ldr	r3, [pc, #520]	@ (8001a44 <HAL_RCC_DeInit+0x21c>)
 800183c:	681b      	ldr	r3, [r3, #0]
 800183e:	f023 030f 	bic.w	r3, r3, #15
 8001842:	4a80      	ldr	r2, [pc, #512]	@ (8001a44 <HAL_RCC_DeInit+0x21c>)
 8001844:	f043 0303 	orr.w	r3, r3, #3
 8001848:	6013      	str	r3, [r2, #0]
 800184a:	4b7e      	ldr	r3, [pc, #504]	@ (8001a44 <HAL_RCC_DeInit+0x21c>)
 800184c:	681b      	ldr	r3, [r3, #0]
 800184e:	f003 030f 	and.w	r3, r3, #15
 8001852:	2b03      	cmp	r3, #3
 8001854:	d001      	beq.n	800185a <HAL_RCC_DeInit+0x32>
 8001856:	2301      	movs	r3, #1
 8001858:	e0f0      	b.n	8001a3c <HAL_RCC_DeInit+0x214>
 800185a:	f7ff f8e5 	bl	8000a28 <HAL_GetTick>
 800185e:	6078      	str	r0, [r7, #4]
 8001860:	4b79      	ldr	r3, [pc, #484]	@ (8001a48 <HAL_RCC_DeInit+0x220>)
 8001862:	681b      	ldr	r3, [r3, #0]
 8001864:	4a78      	ldr	r2, [pc, #480]	@ (8001a48 <HAL_RCC_DeInit+0x220>)
 8001866:	f043 0301 	orr.w	r3, r3, #1
 800186a:	6013      	str	r3, [r2, #0]
 800186c:	e008      	b.n	8001880 <HAL_RCC_DeInit+0x58>
 800186e:	f7ff f8db 	bl	8000a28 <HAL_GetTick>
 8001872:	4602      	mov	r2, r0
 8001874:	687b      	ldr	r3, [r7, #4]
 8001876:	1ad3      	subs	r3, r2, r3
 8001878:	2b02      	cmp	r3, #2
 800187a:	d901      	bls.n	8001880 <HAL_RCC_DeInit+0x58>
 800187c:	2303      	movs	r3, #3
 800187e:	e0dd      	b.n	8001a3c <HAL_RCC_DeInit+0x214>
 8001880:	4b71      	ldr	r3, [pc, #452]	@ (8001a48 <HAL_RCC_DeInit+0x220>)
 8001882:	681b      	ldr	r3, [r3, #0]
 8001884:	f003 0302 	and.w	r3, r3, #2
 8001888:	2b00      	cmp	r3, #0
 800188a:	d0f0      	beq.n	800186e <HAL_RCC_DeInit+0x46>
 800188c:	4b6e      	ldr	r3, [pc, #440]	@ (8001a48 <HAL_RCC_DeInit+0x220>)
 800188e:	681b      	ldr	r3, [r3, #0]
 8001890:	4a6d      	ldr	r2, [pc, #436]	@ (8001a48 <HAL_RCC_DeInit+0x220>)
 8001892:	f023 0318 	bic.w	r3, r3, #24
 8001896:	6013      	str	r3, [r2, #0]
 8001898:	4b6b      	ldr	r3, [pc, #428]	@ (8001a48 <HAL_RCC_DeInit+0x220>)
 800189a:	f44f 0280 	mov.w	r2, #4194304	@ 0x400000
 800189e:	611a      	str	r2, [r3, #16]
 80018a0:	4b6a      	ldr	r3, [pc, #424]	@ (8001a4c <HAL_RCC_DeInit+0x224>)
 80018a2:	681b      	ldr	r3, [r3, #0]
 80018a4:	4618      	mov	r0, r3
 80018a6:	f7ff f835 	bl	8000914 <HAL_InitTick>
 80018aa:	4603      	mov	r3, r0
 80018ac:	2b00      	cmp	r3, #0
 80018ae:	d001      	beq.n	80018b4 <HAL_RCC_DeInit+0x8c>
 80018b0:	2301      	movs	r3, #1
 80018b2:	e0c3      	b.n	8001a3c <HAL_RCC_DeInit+0x214>
 80018b4:	f7ff f8b8 	bl	8000a28 <HAL_GetTick>
 80018b8:	6078      	str	r0, [r7, #4]
 80018ba:	4b63      	ldr	r3, [pc, #396]	@ (8001a48 <HAL_RCC_DeInit+0x220>)
 80018bc:	2200      	movs	r2, #0
 80018be:	61da      	str	r2, [r3, #28]
 80018c0:	4b61      	ldr	r3, [pc, #388]	@ (8001a48 <HAL_RCC_DeInit+0x220>)
 80018c2:	2200      	movs	r2, #0
 80018c4:	621a      	str	r2, [r3, #32]
 80018c6:	e00a      	b.n	80018de <HAL_RCC_DeInit+0xb6>
 80018c8:	f7ff f8ae 	bl	8000a28 <HAL_GetTick>
 80018cc:	4602      	mov	r2, r0
 80018ce:	687b      	ldr	r3, [r7, #4]
 80018d0:	1ad3      	subs	r3, r2, r3
 80018d2:	f241 3288 	movw	r2, #5000	@ 0x1388
 80018d6:	4293      	cmp	r3, r2
 80018d8:	d901      	bls.n	80018de <HAL_RCC_DeInit+0xb6>
 80018da:	2303      	movs	r3, #3
 80018dc:	e0ae      	b.n	8001a3c <HAL_RCC_DeInit+0x214>
 80018de:	4b5a      	ldr	r3, [pc, #360]	@ (8001a48 <HAL_RCC_DeInit+0x220>)
 80018e0:	69db      	ldr	r3, [r3, #28]
 80018e2:	f003 0318 	and.w	r3, r3, #24
 80018e6:	2b00      	cmp	r3, #0
 80018e8:	d1ee      	bne.n	80018c8 <HAL_RCC_DeInit+0xa0>
 80018ea:	4b57      	ldr	r3, [pc, #348]	@ (8001a48 <HAL_RCC_DeInit+0x220>)
 80018ec:	681a      	ldr	r2, [r3, #0]
 80018ee:	4956      	ldr	r1, [pc, #344]	@ (8001a48 <HAL_RCC_DeInit+0x220>)
 80018f0:	4b57      	ldr	r3, [pc, #348]	@ (8001a50 <HAL_RCC_DeInit+0x228>)
 80018f2:	4013      	ands	r3, r2
 80018f4:	600b      	str	r3, [r1, #0]
 80018f6:	4b54      	ldr	r3, [pc, #336]	@ (8001a48 <HAL_RCC_DeInit+0x220>)
 80018f8:	681b      	ldr	r3, [r3, #0]
 80018fa:	4a53      	ldr	r2, [pc, #332]	@ (8001a48 <HAL_RCC_DeInit+0x220>)
 80018fc:	f423 1380 	bic.w	r3, r3, #1048576	@ 0x100000
 8001900:	6013      	str	r3, [r2, #0]
 8001902:	f7ff f891 	bl	8000a28 <HAL_GetTick>
 8001906:	6078      	str	r0, [r7, #4]
 8001908:	4b4f      	ldr	r3, [pc, #316]	@ (8001a48 <HAL_RCC_DeInit+0x220>)
 800190a:	681b      	ldr	r3, [r3, #0]
 800190c:	4a4e      	ldr	r2, [pc, #312]	@ (8001a48 <HAL_RCC_DeInit+0x220>)
 800190e:	f023 7380 	bic.w	r3, r3, #16777216	@ 0x1000000
 8001912:	6013      	str	r3, [r2, #0]
 8001914:	e008      	b.n	8001928 <HAL_RCC_DeInit+0x100>
 8001916:	f7ff f887 	bl	8000a28 <HAL_GetTick>
 800191a:	4602      	mov	r2, r0
 800191c:	687b      	ldr	r3, [r7, #4]
 800191e:	1ad3      	subs	r3, r2, r3
 8001920:	2b02      	cmp	r3, #2
 8001922:	d901      	bls.n	8001928 <HAL_RCC_DeInit+0x100>
 8001924:	2303      	movs	r3, #3
 8001926:	e089      	b.n	8001a3c <HAL_RCC_DeInit+0x214>
 8001928:	4b47      	ldr	r3, [pc, #284]	@ (8001a48 <HAL_RCC_DeInit+0x220>)
 800192a:	681b      	ldr	r3, [r3, #0]
 800192c:	f003 7300 	and.w	r3, r3, #33554432	@ 0x2000000
 8001930:	2b00      	cmp	r3, #0
 8001932:	d1f0      	bne.n	8001916 <HAL_RCC_DeInit+0xee>
 8001934:	f7ff f878 	bl	8000a28 <HAL_GetTick>
 8001938:	6078      	str	r0, [r7, #4]
 800193a:	4b43      	ldr	r3, [pc, #268]	@ (8001a48 <HAL_RCC_DeInit+0x220>)
 800193c:	681b      	ldr	r3, [r3, #0]
 800193e:	4a42      	ldr	r2, [pc, #264]	@ (8001a48 <HAL_RCC_DeInit+0x220>)
 8001940:	f023 6380 	bic.w	r3, r3, #67108864	@ 0x4000000
 8001944:	6013      	str	r3, [r2, #0]
 8001946:	e008      	b.n	800195a <HAL_RCC_DeInit+0x132>
 8001948:	f7ff f86e 	bl	8000a28 <HAL_GetTick>
 800194c:	4602      	mov	r2, r0
 800194e:	687b      	ldr	r3, [r7, #4]
 8001950:	1ad3      	subs	r3, r2, r3
 8001952:	2b02      	cmp	r3, #2
 8001954:	d901      	bls.n	800195a <HAL_RCC_DeInit+0x132>
 8001956:	2303      	movs	r3, #3
 8001958:	e070      	b.n	8001a3c <HAL_RCC_DeInit+0x214>
 800195a:	4b3b      	ldr	r3, [pc, #236]	@ (8001a48 <HAL_RCC_DeInit+0x220>)
 800195c:	681b      	ldr	r3, [r3, #0]
 800195e:	f003 6300 	and.w	r3, r3, #134217728	@ 0x8000000
 8001962:	2b00      	cmp	r3, #0
 8001964:	d1f0      	bne.n	8001948 <HAL_RCC_DeInit+0x120>
 8001966:	f7ff f85f 	bl	8000a28 <HAL_GetTick>
 800196a:	6078      	str	r0, [r7, #4]
 800196c:	4b36      	ldr	r3, [pc, #216]	@ (8001a48 <HAL_RCC_DeInit+0x220>)
 800196e:	681b      	ldr	r3, [r3, #0]
 8001970:	4a35      	ldr	r2, [pc, #212]	@ (8001a48 <HAL_RCC_DeInit+0x220>)
 8001972:	f023 5380 	bic.w	r3, r3, #268435456	@ 0x10000000
 8001976:	6013      	str	r3, [r2, #0]
 8001978:	e008      	b.n	800198c <HAL_RCC_DeInit+0x164>
 800197a:	f7ff f855 	bl	8000a28 <HAL_GetTick>
 800197e:	4602      	mov	r2, r0
 8001980:	687b      	ldr	r3, [r7, #4]
 8001982:	1ad3      	subs	r3, r2, r3
 8001984:	2b02      	cmp	r3, #2
 8001986:	d901      	bls.n	800198c <HAL_RCC_DeInit+0x164>
 8001988:	2303      	movs	r3, #3
 800198a:	e057      	b.n	8001a3c <HAL_RCC_DeInit+0x214>
 800198c:	4b2e      	ldr	r3, [pc, #184]	@ (8001a48 <HAL_RCC_DeInit+0x220>)
 800198e:	681b      	ldr	r3, [r3, #0]
 8001990:	f003 5300 	and.w	r3, r3, #536870912	@ 0x20000000
 8001994:	2b00      	cmp	r3, #0
 8001996:	d1f0      	bne.n	800197a <HAL_RCC_DeInit+0x152>
 8001998:	4b2b      	ldr	r3, [pc, #172]	@ (8001a48 <HAL_RCC_DeInit+0x220>)
 800199a:	2200      	movs	r2, #0
 800199c:	629a      	str	r2, [r3, #40]	@ 0x28
 800199e:	4b2a      	ldr	r3, [pc, #168]	@ (8001a48 <HAL_RCC_DeInit+0x220>)
 80019a0:	4a2c      	ldr	r2, [pc, #176]	@ (8001a54 <HAL_RCC_DeInit+0x22c>)
 80019a2:	635a      	str	r2, [r3, #52]	@ 0x34
 80019a4:	4b28      	ldr	r3, [pc, #160]	@ (8001a48 <HAL_RCC_DeInit+0x220>)
 80019a6:	2200      	movs	r2, #0
 80019a8:	639a      	str	r2, [r3, #56]	@ 0x38
 80019aa:	4b27      	ldr	r3, [pc, #156]	@ (8001a48 <HAL_RCC_DeInit+0x220>)
 80019ac:	2200      	movs	r2, #0
 80019ae:	62da      	str	r2, [r3, #44]	@ 0x2c
 80019b0:	4b25      	ldr	r3, [pc, #148]	@ (8001a48 <HAL_RCC_DeInit+0x220>)
 80019b2:	4a28      	ldr	r2, [pc, #160]	@ (8001a54 <HAL_RCC_DeInit+0x22c>)
 80019b4:	63da      	str	r2, [r3, #60]	@ 0x3c
 80019b6:	4b24      	ldr	r3, [pc, #144]	@ (8001a48 <HAL_RCC_DeInit+0x220>)
 80019b8:	2200      	movs	r2, #0
 80019ba:	641a      	str	r2, [r3, #64]	@ 0x40
 80019bc:	4b22      	ldr	r3, [pc, #136]	@ (8001a48 <HAL_RCC_DeInit+0x220>)
 80019be:	2200      	movs	r2, #0
 80019c0:	631a      	str	r2, [r3, #48]	@ 0x30
 80019c2:	4b21      	ldr	r3, [pc, #132]	@ (8001a48 <HAL_RCC_DeInit+0x220>)
 80019c4:	4a23      	ldr	r2, [pc, #140]	@ (8001a54 <HAL_RCC_DeInit+0x22c>)
 80019c6:	645a      	str	r2, [r3, #68]	@ 0x44
 80019c8:	4b1f      	ldr	r3, [pc, #124]	@ (8001a48 <HAL_RCC_DeInit+0x220>)
 80019ca:	2200      	movs	r2, #0
 80019cc:	649a      	str	r2, [r3, #72]	@ 0x48
 80019ce:	4b1e      	ldr	r3, [pc, #120]	@ (8001a48 <HAL_RCC_DeInit+0x220>)
 80019d0:	681b      	ldr	r3, [r3, #0]
 80019d2:	4a1d      	ldr	r2, [pc, #116]	@ (8001a48 <HAL_RCC_DeInit+0x220>)
 80019d4:	f423 2380 	bic.w	r3, r3, #262144	@ 0x40000
 80019d8:	6013      	str	r3, [r2, #0]
 80019da:	4b1b      	ldr	r3, [pc, #108]	@ (8001a48 <HAL_RCC_DeInit+0x220>)
 80019dc:	2200      	movs	r2, #0
 80019de:	651a      	str	r2, [r3, #80]	@ 0x50
 80019e0:	4b19      	ldr	r3, [pc, #100]	@ (8001a48 <HAL_RCC_DeInit+0x220>)
 80019e2:	f04f 32ff 	mov.w	r2, #4294967295
 80019e6:	659a      	str	r2, [r3, #88]	@ 0x58
 80019e8:	4b17      	ldr	r3, [pc, #92]	@ (8001a48 <HAL_RCC_DeInit+0x220>)
 80019ea:	f8d3 30f4 	ldr.w	r3, [r3, #244]	@ 0xf4
 80019ee:	4a16      	ldr	r2, [pc, #88]	@ (8001a48 <HAL_RCC_DeInit+0x220>)
 80019f0:	f443 0300 	orr.w	r3, r3, #8388608	@ 0x800000
 80019f4:	f8c2 30f4 	str.w	r3, [r2, #244]	@ 0xf4
 80019f8:	4b17      	ldr	r3, [pc, #92]	@ (8001a58 <HAL_RCC_DeInit+0x230>)
 80019fa:	4a18      	ldr	r2, [pc, #96]	@ (8001a5c <HAL_RCC_DeInit+0x234>)
 80019fc:	601a      	str	r2, [r3, #0]
 80019fe:	4b11      	ldr	r3, [pc, #68]	@ (8001a44 <HAL_RCC_DeInit+0x21c>)
 8001a00:	681b      	ldr	r3, [r3, #0]
 8001a02:	f003 030c 	and.w	r3, r3, #12
 8001a06:	2b00      	cmp	r3, #0
 8001a08:	d00f      	beq.n	8001a2a <HAL_RCC_DeInit+0x202>
 8001a0a:	4b0e      	ldr	r3, [pc, #56]	@ (8001a44 <HAL_RCC_DeInit+0x21c>)
 8001a0c:	681b      	ldr	r3, [r3, #0]
 8001a0e:	f023 030f 	bic.w	r3, r3, #15
 8001a12:	4a0c      	ldr	r2, [pc, #48]	@ (8001a44 <HAL_RCC_DeInit+0x21c>)
 8001a14:	f043 0303 	orr.w	r3, r3, #3
 8001a18:	6013      	str	r3, [r2, #0]
 8001a1a:	4b0a      	ldr	r3, [pc, #40]	@ (8001a44 <HAL_RCC_DeInit+0x21c>)
 8001a1c:	681b      	ldr	r3, [r3, #0]
 8001a1e:	f003 030f 	and.w	r3, r3, #15
 8001a22:	2b03      	cmp	r3, #3
 8001a24:	d001      	beq.n	8001a2a <HAL_RCC_DeInit+0x202>
 8001a26:	2301      	movs	r3, #1
 8001a28:	e008      	b.n	8001a3c <HAL_RCC_DeInit+0x214>
 8001a2a:	200f      	movs	r0, #15
 8001a2c:	f7fe ff72 	bl	8000914 <HAL_InitTick>
 8001a30:	4603      	mov	r3, r0
 8001a32:	2b00      	cmp	r3, #0
 8001a34:	d001      	beq.n	8001a3a <HAL_RCC_DeInit+0x212>
 8001a36:	2301      	movs	r3, #1
 8001a38:	e000      	b.n	8001a3c <HAL_RCC_DeInit+0x214>
 8001a3a:	2300      	movs	r3, #0
 8001a3c:	4618      	mov	r0, r3
 8001a3e:	3708      	adds	r7, #8
 8001a40:	46bd      	mov	sp, r7
 8001a42:	bd80      	pop	{r7, pc}
 8001a44:	40022000 	.word	0x40022000
 8001a48:	44020c00 	.word	0x44020c00
 8001a4c:	20000004 	.word	0x20000004
 8001a50:	fff6eafb 	.word	0xfff6eafb
 8001a54:	01010280 	.word	0x01010280
 8001a58:	20000000 	.word	0x20000000
 8001a5c:	03d09000 	.word	0x03d09000

08001a60 <HAL_RCC_OscConfig>:
 8001a60:	b580      	push	{r7, lr}
 8001a62:	b088      	sub	sp, #32
 8001a64:	af00      	add	r7, sp, #0
 8001a66:	6078      	str	r0, [r7, #4]
 8001a68:	687b      	ldr	r3, [r7, #4]
 8001a6a:	2b00      	cmp	r3, #0
 8001a6c:	d102      	bne.n	8001a74 <HAL_RCC_OscConfig+0x14>
 8001a6e:	2301      	movs	r3, #1
 8001a70:	f000 bc28 	b.w	80022c4 <HAL_RCC_OscConfig+0x864>
 8001a74:	4b94      	ldr	r3, [pc, #592]	@ (8001cc8 <HAL_RCC_OscConfig+0x268>)
 8001a76:	69db      	ldr	r3, [r3, #28]
 8001a78:	f003 0318 	and.w	r3, r3, #24
 8001a7c:	61fb      	str	r3, [r7, #28]
 8001a7e:	4b92      	ldr	r3, [pc, #584]	@ (8001cc8 <HAL_RCC_OscConfig+0x268>)
 8001a80:	6a9b      	ldr	r3, [r3, #40]	@ 0x28
 8001a82:	f003 0303 	and.w	r3, r3, #3
 8001a86:	61bb      	str	r3, [r7, #24]
 8001a88:	687b      	ldr	r3, [r7, #4]
 8001a8a:	681b      	ldr	r3, [r3, #0]
 8001a8c:	f003 0310 	and.w	r3, r3, #16
 8001a90:	2b00      	cmp	r3, #0
 8001a92:	d05b      	beq.n	8001b4c <HAL_RCC_OscConfig+0xec>
 8001a94:	69fb      	ldr	r3, [r7, #28]
 8001a96:	2b08      	cmp	r3, #8
 8001a98:	d005      	beq.n	8001aa6 <HAL_RCC_OscConfig+0x46>
 8001a9a:	69fb      	ldr	r3, [r7, #28]
 8001a9c:	2b18      	cmp	r3, #24
 8001a9e:	d114      	bne.n	8001aca <HAL_RCC_OscConfig+0x6a>
 8001aa0:	69bb      	ldr	r3, [r7, #24]
 8001aa2:	2b02      	cmp	r3, #2
 8001aa4:	d111      	bne.n	8001aca <HAL_RCC_OscConfig+0x6a>
 8001aa6:	687b      	ldr	r3, [r7, #4]
 8001aa8:	69db      	ldr	r3, [r3, #28]
 8001aaa:	2b00      	cmp	r3, #0
 8001aac:	d102      	bne.n	8001ab4 <HAL_RCC_OscConfig+0x54>
 8001aae:	2301      	movs	r3, #1
 8001ab0:	f000 bc08 	b.w	80022c4 <HAL_RCC_OscConfig+0x864>
 8001ab4:	4b84      	ldr	r3, [pc, #528]	@ (8001cc8 <HAL_RCC_OscConfig+0x268>)
 8001ab6:	699b      	ldr	r3, [r3, #24]
 8001ab8:	f423 127c 	bic.w	r2, r3, #4128768	@ 0x3f0000
 8001abc:	687b      	ldr	r3, [r7, #4]
 8001abe:	6a1b      	ldr	r3, [r3, #32]
 8001ac0:	041b      	lsls	r3, r3, #16
 8001ac2:	4981      	ldr	r1, [pc, #516]	@ (8001cc8 <HAL_RCC_OscConfig+0x268>)
 8001ac4:	4313      	orrs	r3, r2
 8001ac6:	618b      	str	r3, [r1, #24]
 8001ac8:	e040      	b.n	8001b4c <HAL_RCC_OscConfig+0xec>
 8001aca:	687b      	ldr	r3, [r7, #4]
 8001acc:	69db      	ldr	r3, [r3, #28]
 8001ace:	2b00      	cmp	r3, #0
 8001ad0:	d023      	beq.n	8001b1a <HAL_RCC_OscConfig+0xba>
 8001ad2:	4b7d      	ldr	r3, [pc, #500]	@ (8001cc8 <HAL_RCC_OscConfig+0x268>)
 8001ad4:	681b      	ldr	r3, [r3, #0]
 8001ad6:	4a7c      	ldr	r2, [pc, #496]	@ (8001cc8 <HAL_RCC_OscConfig+0x268>)
 8001ad8:	f443 7380 	orr.w	r3, r3, #256	@ 0x100
 8001adc:	6013      	str	r3, [r2, #0]
 8001ade:	f7fe ffa3 	bl	8000a28 <HAL_GetTick>
 8001ae2:	6178      	str	r0, [r7, #20]
 8001ae4:	e008      	b.n	8001af8 <HAL_RCC_OscConfig+0x98>
 8001ae6:	f7fe ff9f 	bl	8000a28 <HAL_GetTick>
 8001aea:	4602      	mov	r2, r0
 8001aec:	697b      	ldr	r3, [r7, #20]
 8001aee:	1ad3      	subs	r3, r2, r3
 8001af0:	2b02      	cmp	r3, #2
 8001af2:	d901      	bls.n	8001af8 <HAL_RCC_OscConfig+0x98>
 8001af4:	2303      	movs	r3, #3
 8001af6:	e3e5      	b.n	80022c4 <HAL_RCC_OscConfig+0x864>
 8001af8:	4b73      	ldr	r3, [pc, #460]	@ (8001cc8 <HAL_RCC_OscConfig+0x268>)
 8001afa:	681b      	ldr	r3, [r3, #0]
 8001afc:	f403 7300 	and.w	r3, r3, #512	@ 0x200
 8001b00:	2b00      	cmp	r3, #0
 8001b02:	d0f0      	beq.n	8001ae6 <HAL_RCC_OscConfig+0x86>
 8001b04:	4b70      	ldr	r3, [pc, #448]	@ (8001cc8 <HAL_RCC_OscConfig+0x268>)
 8001b06:	699b      	ldr	r3, [r3, #24]
 8001b08:	f423 127c 	bic.w	r2, r3, #4128768	@ 0x3f0000
 8001b0c:	687b      	ldr	r3, [r7, #4]
 8001b0e:	6a1b      	ldr	r3, [r3, #32]
 8001b10:	041b      	lsls	r3, r3, #16
 8001b12:	496d      	ldr	r1, [pc, #436]	@ (8001cc8 <HAL_RCC_OscConfig+0x268>)
 8001b14:	4313      	orrs	r3, r2
 8001b16:	618b      	str	r3, [r1, #24]
 8001b18:	e018      	b.n	8001b4c <HAL_RCC_OscConfig+0xec>
 8001b1a:	4b6b      	ldr	r3, [pc, #428]	@ (8001cc8 <HAL_RCC_OscConfig+0x268>)
 8001b1c:	681b      	ldr	r3, [r3, #0]
 8001b1e:	4a6a      	ldr	r2, [pc, #424]	@ (8001cc8 <HAL_RCC_OscConfig+0x268>)
 8001b20:	f423 7380 	bic.w	r3, r3, #256	@ 0x100
 8001b24:	6013      	str	r3, [r2, #0]
 8001b26:	f7fe ff7f 	bl	8000a28 <HAL_GetTick>
 8001b2a:	6178      	str	r0, [r7, #20]
 8001b2c:	e008      	b.n	8001b40 <HAL_RCC_OscConfig+0xe0>
 8001b2e:	f7fe ff7b 	bl	8000a28 <HAL_GetTick>
 8001b32:	4602      	mov	r2, r0
 8001b34:	697b      	ldr	r3, [r7, #20]
 8001b36:	1ad3      	subs	r3, r2, r3
 8001b38:	2b02      	cmp	r3, #2
 8001b3a:	d901      	bls.n	8001b40 <HAL_RCC_OscConfig+0xe0>
 8001b3c:	2303      	movs	r3, #3
 8001b3e:	e3c1      	b.n	80022c4 <HAL_RCC_OscConfig+0x864>
 8001b40:	4b61      	ldr	r3, [pc, #388]	@ (8001cc8 <HAL_RCC_OscConfig+0x268>)
 8001b42:	681b      	ldr	r3, [r3, #0]
 8001b44:	f403 7300 	and.w	r3, r3, #512	@ 0x200
 8001b48:	2b00      	cmp	r3, #0
 8001b4a:	d1f0      	bne.n	8001b2e <HAL_RCC_OscConfig+0xce>
 8001b4c:	687b      	ldr	r3, [r7, #4]
 8001b4e:	681b      	ldr	r3, [r3, #0]
 8001b50:	f003 0301 	and.w	r3, r3, #1
 8001b54:	2b00      	cmp	r3, #0
 8001b56:	f000 80a0 	beq.w	8001c9a <HAL_RCC_OscConfig+0x23a>
 8001b5a:	69fb      	ldr	r3, [r7, #28]
 8001b5c:	2b10      	cmp	r3, #16
 8001b5e:	d005      	beq.n	8001b6c <HAL_RCC_OscConfig+0x10c>
 8001b60:	69fb      	ldr	r3, [r7, #28]
 8001b62:	2b18      	cmp	r3, #24
 8001b64:	d109      	bne.n	8001b7a <HAL_RCC_OscConfig+0x11a>
 8001b66:	69bb      	ldr	r3, [r7, #24]
 8001b68:	2b03      	cmp	r3, #3
 8001b6a:	d106      	bne.n	8001b7a <HAL_RCC_OscConfig+0x11a>
 8001b6c:	687b      	ldr	r3, [r7, #4]
 8001b6e:	685b      	ldr	r3, [r3, #4]
 8001b70:	2b00      	cmp	r3, #0
 8001b72:	f040 8092 	bne.w	8001c9a <HAL_RCC_OscConfig+0x23a>
 8001b76:	2301      	movs	r3, #1
 8001b78:	e3a4      	b.n	80022c4 <HAL_RCC_OscConfig+0x864>
 8001b7a:	687b      	ldr	r3, [r7, #4]
 8001b7c:	685b      	ldr	r3, [r3, #4]
 8001b7e:	f5b3 3f80 	cmp.w	r3, #65536	@ 0x10000
 8001b82:	d106      	bne.n	8001b92 <HAL_RCC_OscConfig+0x132>
 8001b84:	4b50      	ldr	r3, [pc, #320]	@ (8001cc8 <HAL_RCC_OscConfig+0x268>)
 8001b86:	681b      	ldr	r3, [r3, #0]
 8001b88:	4a4f      	ldr	r2, [pc, #316]	@ (8001cc8 <HAL_RCC_OscConfig+0x268>)
 8001b8a:	f443 3380 	orr.w	r3, r3, #65536	@ 0x10000
 8001b8e:	6013      	str	r3, [r2, #0]
 8001b90:	e058      	b.n	8001c44 <HAL_RCC_OscConfig+0x1e4>
 8001b92:	687b      	ldr	r3, [r7, #4]
 8001b94:	685b      	ldr	r3, [r3, #4]
 8001b96:	2b00      	cmp	r3, #0
 8001b98:	d112      	bne.n	8001bc0 <HAL_RCC_OscConfig+0x160>
 8001b9a:	4b4b      	ldr	r3, [pc, #300]	@ (8001cc8 <HAL_RCC_OscConfig+0x268>)
 8001b9c:	681b      	ldr	r3, [r3, #0]
 8001b9e:	4a4a      	ldr	r2, [pc, #296]	@ (8001cc8 <HAL_RCC_OscConfig+0x268>)
 8001ba0:	f423 3380 	bic.w	r3, r3, #65536	@ 0x10000
 8001ba4:	6013      	str	r3, [r2, #0]
 8001ba6:	4b48      	ldr	r3, [pc, #288]	@ (8001cc8 <HAL_RCC_OscConfig+0x268>)
 8001ba8:	681b      	ldr	r3, [r3, #0]
 8001baa:	4a47      	ldr	r2, [pc, #284]	@ (8001cc8 <HAL_RCC_OscConfig+0x268>)
 8001bac:	f423 1380 	bic.w	r3, r3, #1048576	@ 0x100000
 8001bb0:	6013      	str	r3, [r2, #0]
 8001bb2:	4b45      	ldr	r3, [pc, #276]	@ (8001cc8 <HAL_RCC_OscConfig+0x268>)
 8001bb4:	681b      	ldr	r3, [r3, #0]
 8001bb6:	4a44      	ldr	r2, [pc, #272]	@ (8001cc8 <HAL_RCC_OscConfig+0x268>)
 8001bb8:	f423 2380 	bic.w	r3, r3, #262144	@ 0x40000
 8001bbc:	6013      	str	r3, [r2, #0]
 8001bbe:	e041      	b.n	8001c44 <HAL_RCC_OscConfig+0x1e4>
 8001bc0:	687b      	ldr	r3, [r7, #4]
 8001bc2:	685b      	ldr	r3, [r3, #4]
 8001bc4:	f5b3 2fa0 	cmp.w	r3, #327680	@ 0x50000
 8001bc8:	d112      	bne.n	8001bf0 <HAL_RCC_OscConfig+0x190>
 8001bca:	4b3f      	ldr	r3, [pc, #252]	@ (8001cc8 <HAL_RCC_OscConfig+0x268>)
 8001bcc:	681b      	ldr	r3, [r3, #0]
 8001bce:	4a3e      	ldr	r2, [pc, #248]	@ (8001cc8 <HAL_RCC_OscConfig+0x268>)
 8001bd0:	f443 2380 	orr.w	r3, r3, #262144	@ 0x40000
 8001bd4:	6013      	str	r3, [r2, #0]
 8001bd6:	4b3c      	ldr	r3, [pc, #240]	@ (8001cc8 <HAL_RCC_OscConfig+0x268>)
 8001bd8:	681b      	ldr	r3, [r3, #0]
 8001bda:	4a3b      	ldr	r2, [pc, #236]	@ (8001cc8 <HAL_RCC_OscConfig+0x268>)
 8001bdc:	f423 1380 	bic.w	r3, r3, #1048576	@ 0x100000
 8001be0:	6013      	str	r3, [r2, #0]
 8001be2:	4b39      	ldr	r3, [pc, #228]	@ (8001cc8 <HAL_RCC_OscConfig+0x268>)
 8001be4:	681b      	ldr	r3, [r3, #0]
 8001be6:	4a38      	ldr	r2, [pc, #224]	@ (8001cc8 <HAL_RCC_OscConfig+0x268>)
 8001be8:	f443 3380 	orr.w	r3, r3, #65536	@ 0x10000
 8001bec:	6013      	str	r3, [r2, #0]
 8001bee:	e029      	b.n	8001c44 <HAL_RCC_OscConfig+0x1e4>
 8001bf0:	687b      	ldr	r3, [r7, #4]
 8001bf2:	685b      	ldr	r3, [r3, #4]
 8001bf4:	f5b3 1fa8 	cmp.w	r3, #1376256	@ 0x150000
 8001bf8:	d112      	bne.n	8001c20 <HAL_RCC_OscConfig+0x1c0>
 8001bfa:	4b33      	ldr	r3, [pc, #204]	@ (8001cc8 <HAL_RCC_OscConfig+0x268>)
 8001bfc:	681b      	ldr	r3, [r3, #0]
 8001bfe:	4a32      	ldr	r2, [pc, #200]	@ (8001cc8 <HAL_RCC_OscConfig+0x268>)
 8001c00:	f443 2380 	orr.w	r3, r3, #262144	@ 0x40000
 8001c04:	6013      	str	r3, [r2, #0]
 8001c06:	4b30      	ldr	r3, [pc, #192]	@ (8001cc8 <HAL_RCC_OscConfig+0x268>)
 8001c08:	681b      	ldr	r3, [r3, #0]
 8001c0a:	4a2f      	ldr	r2, [pc, #188]	@ (8001cc8 <HAL_RCC_OscConfig+0x268>)
 8001c0c:	f443 1380 	orr.w	r3, r3, #1048576	@ 0x100000
 8001c10:	6013      	str	r3, [r2, #0]
 8001c12:	4b2d      	ldr	r3, [pc, #180]	@ (8001cc8 <HAL_RCC_OscConfig+0x268>)
 8001c14:	681b      	ldr	r3, [r3, #0]
 8001c16:	4a2c      	ldr	r2, [pc, #176]	@ (8001cc8 <HAL_RCC_OscConfig+0x268>)
 8001c18:	f443 3380 	orr.w	r3, r3, #65536	@ 0x10000
 8001c1c:	6013      	str	r3, [r2, #0]
 8001c1e:	e011      	b.n	8001c44 <HAL_RCC_OscConfig+0x1e4>
 8001c20:	4b29      	ldr	r3, [pc, #164]	@ (8001cc8 <HAL_RCC_OscConfig+0x268>)
 8001c22:	681b      	ldr	r3, [r3, #0]
 8001c24:	4a28      	ldr	r2, [pc, #160]	@ (8001cc8 <HAL_RCC_OscConfig+0x268>)
 8001c26:	f423 3380 	bic.w	r3, r3, #65536	@ 0x10000
 8001c2a:	6013      	str	r3, [r2, #0]
 8001c2c:	4b26      	ldr	r3, [pc, #152]	@ (8001cc8 <HAL_RCC_OscConfig+0x268>)
 8001c2e:	681b      	ldr	r3, [r3, #0]
 8001c30:	4a25      	ldr	r2, [pc, #148]	@ (8001cc8 <HAL_RCC_OscConfig+0x268>)
 8001c32:	f423 2380 	bic.w	r3, r3, #262144	@ 0x40000
 8001c36:	6013      	str	r3, [r2, #0]
 8001c38:	4b23      	ldr	r3, [pc, #140]	@ (8001cc8 <HAL_RCC_OscConfig+0x268>)
 8001c3a:	681b      	ldr	r3, [r3, #0]
 8001c3c:	4a22      	ldr	r2, [pc, #136]	@ (8001cc8 <HAL_RCC_OscConfig+0x268>)
 8001c3e:	f423 1380 	bic.w	r3, r3, #1048576	@ 0x100000
 8001c42:	6013      	str	r3, [r2, #0]
 8001c44:	687b      	ldr	r3, [r7, #4]
 8001c46:	685b      	ldr	r3, [r3, #4]
 8001c48:	2b00      	cmp	r3, #0
 8001c4a:	d013      	beq.n	8001c74 <HAL_RCC_OscConfig+0x214>
 8001c4c:	f7fe feec 	bl	8000a28 <HAL_GetTick>
 8001c50:	6178      	str	r0, [r7, #20]
 8001c52:	e008      	b.n	8001c66 <HAL_RCC_OscConfig+0x206>
 8001c54:	f7fe fee8 	bl	8000a28 <HAL_GetTick>
 8001c58:	4602      	mov	r2, r0
 8001c5a:	697b      	ldr	r3, [r7, #20]
 8001c5c:	1ad3      	subs	r3, r2, r3
 8001c5e:	2b64      	cmp	r3, #100	@ 0x64
 8001c60:	d901      	bls.n	8001c66 <HAL_RCC_OscConfig+0x206>
 8001c62:	2303      	movs	r3, #3
 8001c64:	e32e      	b.n	80022c4 <HAL_RCC_OscConfig+0x864>
 8001c66:	4b18      	ldr	r3, [pc, #96]	@ (8001cc8 <HAL_RCC_OscConfig+0x268>)
 8001c68:	681b      	ldr	r3, [r3, #0]
 8001c6a:	f403 3300 	and.w	r3, r3, #131072	@ 0x20000
 8001c6e:	2b00      	cmp	r3, #0
 8001c70:	d0f0      	beq.n	8001c54 <HAL_RCC_OscConfig+0x1f4>
 8001c72:	e012      	b.n	8001c9a <HAL_RCC_OscConfig+0x23a>
 8001c74:	f7fe fed8 	bl	8000a28 <HAL_GetTick>
 8001c78:	6178      	str	r0, [r7, #20]
 8001c7a:	e008      	b.n	8001c8e <HAL_RCC_OscConfig+0x22e>
 8001c7c:	f7fe fed4 	bl	8000a28 <HAL_GetTick>
 8001c80:	4602      	mov	r2, r0
 8001c82:	697b      	ldr	r3, [r7, #20]
 8001c84:	1ad3      	subs	r3, r2, r3
 8001c86:	2b64      	cmp	r3, #100	@ 0x64
 8001c88:	d901      	bls.n	8001c8e <HAL_RCC_OscConfig+0x22e>
 8001c8a:	2303      	movs	r3, #3
 8001c8c:	e31a      	b.n	80022c4 <HAL_RCC_OscConfig+0x864>
 8001c8e:	4b0e      	ldr	r3, [pc, #56]	@ (8001cc8 <HAL_RCC_OscConfig+0x268>)
 8001c90:	681b      	ldr	r3, [r3, #0]
 8001c92:	f403 3300 	and.w	r3, r3, #131072	@ 0x20000
 8001c96:	2b00      	cmp	r3, #0
 8001c98:	d1f0      	bne.n	8001c7c <HAL_RCC_OscConfig+0x21c>
 8001c9a:	687b      	ldr	r3, [r7, #4]
 8001c9c:	681b      	ldr	r3, [r3, #0]
 8001c9e:	f003 0302 	and.w	r3, r3, #2
 8001ca2:	2b00      	cmp	r3, #0
 8001ca4:	f000 809a 	beq.w	8001ddc <HAL_RCC_OscConfig+0x37c>
 8001ca8:	69fb      	ldr	r3, [r7, #28]
 8001caa:	2b00      	cmp	r3, #0
 8001cac:	d005      	beq.n	8001cba <HAL_RCC_OscConfig+0x25a>
 8001cae:	69fb      	ldr	r3, [r7, #28]
 8001cb0:	2b18      	cmp	r3, #24
 8001cb2:	d149      	bne.n	8001d48 <HAL_RCC_OscConfig+0x2e8>
 8001cb4:	69bb      	ldr	r3, [r7, #24]
 8001cb6:	2b01      	cmp	r3, #1
 8001cb8:	d146      	bne.n	8001d48 <HAL_RCC_OscConfig+0x2e8>
 8001cba:	687b      	ldr	r3, [r7, #4]
 8001cbc:	68db      	ldr	r3, [r3, #12]
 8001cbe:	2b00      	cmp	r3, #0
 8001cc0:	d104      	bne.n	8001ccc <HAL_RCC_OscConfig+0x26c>
 8001cc2:	2301      	movs	r3, #1
 8001cc4:	e2fe      	b.n	80022c4 <HAL_RCC_OscConfig+0x864>
 8001cc6:	bf00      	nop
 8001cc8:	44020c00 	.word	0x44020c00
 8001ccc:	69fb      	ldr	r3, [r7, #28]
 8001cce:	2b00      	cmp	r3, #0
 8001cd0:	d11c      	bne.n	8001d0c <HAL_RCC_OscConfig+0x2ac>
 8001cd2:	4b9a      	ldr	r3, [pc, #616]	@ (8001f3c <HAL_RCC_OscConfig+0x4dc>)
 8001cd4:	681b      	ldr	r3, [r3, #0]
 8001cd6:	f003 0218 	and.w	r2, r3, #24
 8001cda:	687b      	ldr	r3, [r7, #4]
 8001cdc:	691b      	ldr	r3, [r3, #16]
 8001cde:	429a      	cmp	r2, r3
 8001ce0:	d014      	beq.n	8001d0c <HAL_RCC_OscConfig+0x2ac>
 8001ce2:	4b96      	ldr	r3, [pc, #600]	@ (8001f3c <HAL_RCC_OscConfig+0x4dc>)
 8001ce4:	681b      	ldr	r3, [r3, #0]
 8001ce6:	f023 0218 	bic.w	r2, r3, #24
 8001cea:	687b      	ldr	r3, [r7, #4]
 8001cec:	691b      	ldr	r3, [r3, #16]
 8001cee:	4993      	ldr	r1, [pc, #588]	@ (8001f3c <HAL_RCC_OscConfig+0x4dc>)
 8001cf0:	4313      	orrs	r3, r2
 8001cf2:	600b      	str	r3, [r1, #0]
 8001cf4:	f000 fe3a 	bl	800296c <HAL_RCC_GetHCLKFreq>
 8001cf8:	4b91      	ldr	r3, [pc, #580]	@ (8001f40 <HAL_RCC_OscConfig+0x4e0>)
 8001cfa:	681b      	ldr	r3, [r3, #0]
 8001cfc:	4618      	mov	r0, r3
 8001cfe:	f7fe fe09 	bl	8000914 <HAL_InitTick>
 8001d02:	4603      	mov	r3, r0
 8001d04:	2b00      	cmp	r3, #0
 8001d06:	d001      	beq.n	8001d0c <HAL_RCC_OscConfig+0x2ac>
 8001d08:	2301      	movs	r3, #1
 8001d0a:	e2db      	b.n	80022c4 <HAL_RCC_OscConfig+0x864>
 8001d0c:	f7fe fe8c 	bl	8000a28 <HAL_GetTick>
 8001d10:	6178      	str	r0, [r7, #20]
 8001d12:	e008      	b.n	8001d26 <HAL_RCC_OscConfig+0x2c6>
 8001d14:	f7fe fe88 	bl	8000a28 <HAL_GetTick>
 8001d18:	4602      	mov	r2, r0
 8001d1a:	697b      	ldr	r3, [r7, #20]
 8001d1c:	1ad3      	subs	r3, r2, r3
 8001d1e:	2b02      	cmp	r3, #2
 8001d20:	d901      	bls.n	8001d26 <HAL_RCC_OscConfig+0x2c6>
 8001d22:	2303      	movs	r3, #3
 8001d24:	e2ce      	b.n	80022c4 <HAL_RCC_OscConfig+0x864>
 8001d26:	4b85      	ldr	r3, [pc, #532]	@ (8001f3c <HAL_RCC_OscConfig+0x4dc>)
 8001d28:	681b      	ldr	r3, [r3, #0]
 8001d2a:	f003 0302 	and.w	r3, r3, #2
 8001d2e:	2b00      	cmp	r3, #0
 8001d30:	d0f0      	beq.n	8001d14 <HAL_RCC_OscConfig+0x2b4>
 8001d32:	4b82      	ldr	r3, [pc, #520]	@ (8001f3c <HAL_RCC_OscConfig+0x4dc>)
 8001d34:	691b      	ldr	r3, [r3, #16]
 8001d36:	f423 02fe 	bic.w	r2, r3, #8323072	@ 0x7f0000
 8001d3a:	687b      	ldr	r3, [r7, #4]
 8001d3c:	695b      	ldr	r3, [r3, #20]
 8001d3e:	041b      	lsls	r3, r3, #16
 8001d40:	497e      	ldr	r1, [pc, #504]	@ (8001f3c <HAL_RCC_OscConfig+0x4dc>)
 8001d42:	4313      	orrs	r3, r2
 8001d44:	610b      	str	r3, [r1, #16]
 8001d46:	e049      	b.n	8001ddc <HAL_RCC_OscConfig+0x37c>
 8001d48:	687b      	ldr	r3, [r7, #4]
 8001d4a:	68db      	ldr	r3, [r3, #12]
 8001d4c:	2b00      	cmp	r3, #0
 8001d4e:	d02c      	beq.n	8001daa <HAL_RCC_OscConfig+0x34a>
 8001d50:	4b7a      	ldr	r3, [pc, #488]	@ (8001f3c <HAL_RCC_OscConfig+0x4dc>)
 8001d52:	681b      	ldr	r3, [r3, #0]
 8001d54:	f023 0218 	bic.w	r2, r3, #24
 8001d58:	687b      	ldr	r3, [r7, #4]
 8001d5a:	691b      	ldr	r3, [r3, #16]
 8001d5c:	4977      	ldr	r1, [pc, #476]	@ (8001f3c <HAL_RCC_OscConfig+0x4dc>)
 8001d5e:	4313      	orrs	r3, r2
 8001d60:	600b      	str	r3, [r1, #0]
 8001d62:	4b76      	ldr	r3, [pc, #472]	@ (8001f3c <HAL_RCC_OscConfig+0x4dc>)
 8001d64:	681b      	ldr	r3, [r3, #0]
 8001d66:	4a75      	ldr	r2, [pc, #468]	@ (8001f3c <HAL_RCC_OscConfig+0x4dc>)
 8001d68:	f043 0301 	orr.w	r3, r3, #1
 8001d6c:	6013      	str	r3, [r2, #0]
 8001d6e:	f7fe fe5b 	bl	8000a28 <HAL_GetTick>
 8001d72:	6178      	str	r0, [r7, #20]
 8001d74:	e008      	b.n	8001d88 <HAL_RCC_OscConfig+0x328>
 8001d76:	f7fe fe57 	bl	8000a28 <HAL_GetTick>
 8001d7a:	4602      	mov	r2, r0
 8001d7c:	697b      	ldr	r3, [r7, #20]
 8001d7e:	1ad3      	subs	r3, r2, r3
 8001d80:	2b02      	cmp	r3, #2
 8001d82:	d901      	bls.n	8001d88 <HAL_RCC_OscConfig+0x328>
 8001d84:	2303      	movs	r3, #3
 8001d86:	e29d      	b.n	80022c4 <HAL_RCC_OscConfig+0x864>
 8001d88:	4b6c      	ldr	r3, [pc, #432]	@ (8001f3c <HAL_RCC_OscConfig+0x4dc>)
 8001d8a:	681b      	ldr	r3, [r3, #0]
 8001d8c:	f003 0302 	and.w	r3, r3, #2
 8001d90:	2b00      	cmp	r3, #0
 8001d92:	d0f0      	beq.n	8001d76 <HAL_RCC_OscConfig+0x316>
 8001d94:	4b69      	ldr	r3, [pc, #420]	@ (8001f3c <HAL_RCC_OscConfig+0x4dc>)
 8001d96:	691b      	ldr	r3, [r3, #16]
 8001d98:	f423 02fe 	bic.w	r2, r3, #8323072	@ 0x7f0000
 8001d9c:	687b      	ldr	r3, [r7, #4]
 8001d9e:	695b      	ldr	r3, [r3, #20]
 8001da0:	041b      	lsls	r3, r3, #16
 8001da2:	4966      	ldr	r1, [pc, #408]	@ (8001f3c <HAL_RCC_OscConfig+0x4dc>)
 8001da4:	4313      	orrs	r3, r2
 8001da6:	610b      	str	r3, [r1, #16]
 8001da8:	e018      	b.n	8001ddc <HAL_RCC_OscConfig+0x37c>
 8001daa:	4b64      	ldr	r3, [pc, #400]	@ (8001f3c <HAL_RCC_OscConfig+0x4dc>)
 8001dac:	681b      	ldr	r3, [r3, #0]
 8001dae:	4a63      	ldr	r2, [pc, #396]	@ (8001f3c <HAL_RCC_OscConfig+0x4dc>)
 8001db0:	f023 0301 	bic.w	r3, r3, #1
 8001db4:	6013      	str	r3, [r2, #0]
 8001db6:	f7fe fe37 	bl	8000a28 <HAL_GetTick>
 8001dba:	6178      	str	r0, [r7, #20]
 8001dbc:	e008      	b.n	8001dd0 <HAL_RCC_OscConfig+0x370>
 8001dbe:	f7fe fe33 	bl	8000a28 <HAL_GetTick>
 8001dc2:	4602      	mov	r2, r0
 8001dc4:	697b      	ldr	r3, [r7, #20]
 8001dc6:	1ad3      	subs	r3, r2, r3
 8001dc8:	2b02      	cmp	r3, #2
 8001dca:	d901      	bls.n	8001dd0 <HAL_RCC_OscConfig+0x370>
 8001dcc:	2303      	movs	r3, #3
 8001dce:	e279      	b.n	80022c4 <HAL_RCC_OscConfig+0x864>
 8001dd0:	4b5a      	ldr	r3, [pc, #360]	@ (8001f3c <HAL_RCC_OscConfig+0x4dc>)
 8001dd2:	681b      	ldr	r3, [r3, #0]
 8001dd4:	f003 0302 	and.w	r3, r3, #2
 8001dd8:	2b00      	cmp	r3, #0
 8001dda:	d1f0      	bne.n	8001dbe <HAL_RCC_OscConfig+0x35e>
 8001ddc:	687b      	ldr	r3, [r7, #4]
 8001dde:	681b      	ldr	r3, [r3, #0]
 8001de0:	f003 0308 	and.w	r3, r3, #8
 8001de4:	2b00      	cmp	r3, #0
 8001de6:	d03c      	beq.n	8001e62 <HAL_RCC_OscConfig+0x402>
 8001de8:	687b      	ldr	r3, [r7, #4]
 8001dea:	699b      	ldr	r3, [r3, #24]
 8001dec:	2b00      	cmp	r3, #0
 8001dee:	d01c      	beq.n	8001e2a <HAL_RCC_OscConfig+0x3ca>
 8001df0:	4b52      	ldr	r3, [pc, #328]	@ (8001f3c <HAL_RCC_OscConfig+0x4dc>)
 8001df2:	f8d3 30f0 	ldr.w	r3, [r3, #240]	@ 0xf0
 8001df6:	4a51      	ldr	r2, [pc, #324]	@ (8001f3c <HAL_RCC_OscConfig+0x4dc>)
 8001df8:	f043 6380 	orr.w	r3, r3, #67108864	@ 0x4000000
 8001dfc:	f8c2 30f0 	str.w	r3, [r2, #240]	@ 0xf0
 8001e00:	f7fe fe12 	bl	8000a28 <HAL_GetTick>
 8001e04:	6178      	str	r0, [r7, #20]
 8001e06:	e008      	b.n	8001e1a <HAL_RCC_OscConfig+0x3ba>
 8001e08:	f7fe fe0e 	bl	8000a28 <HAL_GetTick>
 8001e0c:	4602      	mov	r2, r0
 8001e0e:	697b      	ldr	r3, [r7, #20]
 8001e10:	1ad3      	subs	r3, r2, r3
 8001e12:	2b02      	cmp	r3, #2
 8001e14:	d901      	bls.n	8001e1a <HAL_RCC_OscConfig+0x3ba>
 8001e16:	2303      	movs	r3, #3
 8001e18:	e254      	b.n	80022c4 <HAL_RCC_OscConfig+0x864>
 8001e1a:	4b48      	ldr	r3, [pc, #288]	@ (8001f3c <HAL_RCC_OscConfig+0x4dc>)
 8001e1c:	f8d3 30f0 	ldr.w	r3, [r3, #240]	@ 0xf0
 8001e20:	f003 6300 	and.w	r3, r3, #134217728	@ 0x8000000
 8001e24:	2b00      	cmp	r3, #0
 8001e26:	d0ef      	beq.n	8001e08 <HAL_RCC_OscConfig+0x3a8>
 8001e28:	e01b      	b.n	8001e62 <HAL_RCC_OscConfig+0x402>
 8001e2a:	4b44      	ldr	r3, [pc, #272]	@ (8001f3c <HAL_RCC_OscConfig+0x4dc>)
 8001e2c:	f8d3 30f0 	ldr.w	r3, [r3, #240]	@ 0xf0
 8001e30:	4a42      	ldr	r2, [pc, #264]	@ (8001f3c <HAL_RCC_OscConfig+0x4dc>)
 8001e32:	f023 6380 	bic.w	r3, r3, #67108864	@ 0x4000000
 8001e36:	f8c2 30f0 	str.w	r3, [r2, #240]	@ 0xf0
 8001e3a:	f7fe fdf5 	bl	8000a28 <HAL_GetTick>
 8001e3e:	6178      	str	r0, [r7, #20]
 8001e40:	e008      	b.n	8001e54 <HAL_RCC_OscConfig+0x3f4>
 8001e42:	f7fe fdf1 	bl	8000a28 <HAL_GetTick>
 8001e46:	4602      	mov	r2, r0
 8001e48:	697b      	ldr	r3, [r7, #20]
 8001e4a:	1ad3      	subs	r3, r2, r3
 8001e4c:	2b02      	cmp	r3, #2
 8001e4e:	d901      	bls.n	8001e54 <HAL_RCC_OscConfig+0x3f4>
 8001e50:	2303      	movs	r3, #3
 8001e52:	e237      	b.n	80022c4 <HAL_RCC_OscConfig+0x864>
 8001e54:	4b39      	ldr	r3, [pc, #228]	@ (8001f3c <HAL_RCC_OscConfig+0x4dc>)
 8001e56:	f8d3 30f0 	ldr.w	r3, [r3, #240]	@ 0xf0
 8001e5a:	f003 6300 	and.w	r3, r3, #134217728	@ 0x8000000
 8001e5e:	2b00      	cmp	r3, #0
 8001e60:	d1ef      	bne.n	8001e42 <HAL_RCC_OscConfig+0x3e2>
 8001e62:	687b      	ldr	r3, [r7, #4]
 8001e64:	681b      	ldr	r3, [r3, #0]
 8001e66:	f003 0304 	and.w	r3, r3, #4
 8001e6a:	2b00      	cmp	r3, #0
 8001e6c:	f000 80d2 	beq.w	8002014 <HAL_RCC_OscConfig+0x5b4>
 8001e70:	4b34      	ldr	r3, [pc, #208]	@ (8001f44 <HAL_RCC_OscConfig+0x4e4>)
 8001e72:	6a5b      	ldr	r3, [r3, #36]	@ 0x24
 8001e74:	f003 0301 	and.w	r3, r3, #1
 8001e78:	2b00      	cmp	r3, #0
 8001e7a:	d118      	bne.n	8001eae <HAL_RCC_OscConfig+0x44e>
 8001e7c:	4b31      	ldr	r3, [pc, #196]	@ (8001f44 <HAL_RCC_OscConfig+0x4e4>)
 8001e7e:	6a5b      	ldr	r3, [r3, #36]	@ 0x24
 8001e80:	4a30      	ldr	r2, [pc, #192]	@ (8001f44 <HAL_RCC_OscConfig+0x4e4>)
 8001e82:	f043 0301 	orr.w	r3, r3, #1
 8001e86:	6253      	str	r3, [r2, #36]	@ 0x24
 8001e88:	f7fe fdce 	bl	8000a28 <HAL_GetTick>
 8001e8c:	6178      	str	r0, [r7, #20]
 8001e8e:	e008      	b.n	8001ea2 <HAL_RCC_OscConfig+0x442>
 8001e90:	f7fe fdca 	bl	8000a28 <HAL_GetTick>
 8001e94:	4602      	mov	r2, r0
 8001e96:	697b      	ldr	r3, [r7, #20]
 8001e98:	1ad3      	subs	r3, r2, r3
 8001e9a:	2b02      	cmp	r3, #2
 8001e9c:	d901      	bls.n	8001ea2 <HAL_RCC_OscConfig+0x442>
 8001e9e:	2303      	movs	r3, #3
 8001ea0:	e210      	b.n	80022c4 <HAL_RCC_OscConfig+0x864>
 8001ea2:	4b28      	ldr	r3, [pc, #160]	@ (8001f44 <HAL_RCC_OscConfig+0x4e4>)
 8001ea4:	6a5b      	ldr	r3, [r3, #36]	@ 0x24
 8001ea6:	f003 0301 	and.w	r3, r3, #1
 8001eaa:	2b00      	cmp	r3, #0
 8001eac:	d0f0      	beq.n	8001e90 <HAL_RCC_OscConfig+0x430>
 8001eae:	687b      	ldr	r3, [r7, #4]
 8001eb0:	689b      	ldr	r3, [r3, #8]
 8001eb2:	2b01      	cmp	r3, #1
 8001eb4:	d108      	bne.n	8001ec8 <HAL_RCC_OscConfig+0x468>
 8001eb6:	4b21      	ldr	r3, [pc, #132]	@ (8001f3c <HAL_RCC_OscConfig+0x4dc>)
 8001eb8:	f8d3 30f0 	ldr.w	r3, [r3, #240]	@ 0xf0
 8001ebc:	4a1f      	ldr	r2, [pc, #124]	@ (8001f3c <HAL_RCC_OscConfig+0x4dc>)
 8001ebe:	f043 0301 	orr.w	r3, r3, #1
 8001ec2:	f8c2 30f0 	str.w	r3, [r2, #240]	@ 0xf0
 8001ec6:	e074      	b.n	8001fb2 <HAL_RCC_OscConfig+0x552>
 8001ec8:	687b      	ldr	r3, [r7, #4]
 8001eca:	689b      	ldr	r3, [r3, #8]
 8001ecc:	2b00      	cmp	r3, #0
 8001ece:	d118      	bne.n	8001f02 <HAL_RCC_OscConfig+0x4a2>
 8001ed0:	4b1a      	ldr	r3, [pc, #104]	@ (8001f3c <HAL_RCC_OscConfig+0x4dc>)
 8001ed2:	f8d3 30f0 	ldr.w	r3, [r3, #240]	@ 0xf0
 8001ed6:	4a19      	ldr	r2, [pc, #100]	@ (8001f3c <HAL_RCC_OscConfig+0x4dc>)
 8001ed8:	f023 0301 	bic.w	r3, r3, #1
 8001edc:	f8c2 30f0 	str.w	r3, [r2, #240]	@ 0xf0
 8001ee0:	4b16      	ldr	r3, [pc, #88]	@ (8001f3c <HAL_RCC_OscConfig+0x4dc>)
 8001ee2:	f8d3 30f0 	ldr.w	r3, [r3, #240]	@ 0xf0
 8001ee6:	4a15      	ldr	r2, [pc, #84]	@ (8001f3c <HAL_RCC_OscConfig+0x4dc>)
 8001ee8:	f023 0380 	bic.w	r3, r3, #128	@ 0x80
 8001eec:	f8c2 30f0 	str.w	r3, [r2, #240]	@ 0xf0
 8001ef0:	4b12      	ldr	r3, [pc, #72]	@ (8001f3c <HAL_RCC_OscConfig+0x4dc>)
 8001ef2:	f8d3 30f0 	ldr.w	r3, [r3, #240]	@ 0xf0
 8001ef6:	4a11      	ldr	r2, [pc, #68]	@ (8001f3c <HAL_RCC_OscConfig+0x4dc>)
 8001ef8:	f023 0304 	bic.w	r3, r3, #4
 8001efc:	f8c2 30f0 	str.w	r3, [r2, #240]	@ 0xf0
 8001f00:	e057      	b.n	8001fb2 <HAL_RCC_OscConfig+0x552>
 8001f02:	687b      	ldr	r3, [r7, #4]
 8001f04:	689b      	ldr	r3, [r3, #8]
 8001f06:	2b05      	cmp	r3, #5
 8001f08:	d11e      	bne.n	8001f48 <HAL_RCC_OscConfig+0x4e8>
 8001f0a:	4b0c      	ldr	r3, [pc, #48]	@ (8001f3c <HAL_RCC_OscConfig+0x4dc>)
 8001f0c:	f8d3 30f0 	ldr.w	r3, [r3, #240]	@ 0xf0
 8001f10:	4a0a      	ldr	r2, [pc, #40]	@ (8001f3c <HAL_RCC_OscConfig+0x4dc>)
 8001f12:	f043 0304 	orr.w	r3, r3, #4
 8001f16:	f8c2 30f0 	str.w	r3, [r2, #240]	@ 0xf0
 8001f1a:	4b08      	ldr	r3, [pc, #32]	@ (8001f3c <HAL_RCC_OscConfig+0x4dc>)
 8001f1c:	f8d3 30f0 	ldr.w	r3, [r3, #240]	@ 0xf0
 8001f20:	4a06      	ldr	r2, [pc, #24]	@ (8001f3c <HAL_RCC_OscConfig+0x4dc>)
 8001f22:	f023 0380 	bic.w	r3, r3, #128	@ 0x80
 8001f26:	f8c2 30f0 	str.w	r3, [r2, #240]	@ 0xf0
 8001f2a:	4b04      	ldr	r3, [pc, #16]	@ (8001f3c <HAL_RCC_OscConfig+0x4dc>)
 8001f2c:	f8d3 30f0 	ldr.w	r3, [r3, #240]	@ 0xf0
 8001f30:	4a02      	ldr	r2, [pc, #8]	@ (8001f3c <HAL_RCC_OscConfig+0x4dc>)
 8001f32:	f043 0301 	orr.w	r3, r3, #1
 8001f36:	f8c2 30f0 	str.w	r3, [r2, #240]	@ 0xf0
 8001f3a:	e03a      	b.n	8001fb2 <HAL_RCC_OscConfig+0x552>
 8001f3c:	44020c00 	.word	0x44020c00
 8001f40:	20000004 	.word	0x20000004
 8001f44:	44020800 	.word	0x44020800
 8001f48:	687b      	ldr	r3, [r7, #4]
 8001f4a:	689b      	ldr	r3, [r3, #8]
 8001f4c:	2b85      	cmp	r3, #133	@ 0x85
 8001f4e:	d118      	bne.n	8001f82 <HAL_RCC_OscConfig+0x522>
 8001f50:	4ba2      	ldr	r3, [pc, #648]	@ (80021dc <HAL_RCC_OscConfig+0x77c>)
 8001f52:	f8d3 30f0 	ldr.w	r3, [r3, #240]	@ 0xf0
 8001f56:	4aa1      	ldr	r2, [pc, #644]	@ (80021dc <HAL_RCC_OscConfig+0x77c>)
 8001f58:	f043 0304 	orr.w	r3, r3, #4
 8001f5c:	f8c2 30f0 	str.w	r3, [r2, #240]	@ 0xf0
 8001f60:	4b9e      	ldr	r3, [pc, #632]	@ (80021dc <HAL_RCC_OscConfig+0x77c>)
 8001f62:	f8d3 30f0 	ldr.w	r3, [r3, #240]	@ 0xf0
 8001f66:	4a9d      	ldr	r2, [pc, #628]	@ (80021dc <HAL_RCC_OscConfig+0x77c>)
 8001f68:	f043 0380 	orr.w	r3, r3, #128	@ 0x80
 8001f6c:	f8c2 30f0 	str.w	r3, [r2, #240]	@ 0xf0
 8001f70:	4b9a      	ldr	r3, [pc, #616]	@ (80021dc <HAL_RCC_OscConfig+0x77c>)
 8001f72:	f8d3 30f0 	ldr.w	r3, [r3, #240]	@ 0xf0
 8001f76:	4a99      	ldr	r2, [pc, #612]	@ (80021dc <HAL_RCC_OscConfig+0x77c>)
 8001f78:	f043 0301 	orr.w	r3, r3, #1
 8001f7c:	f8c2 30f0 	str.w	r3, [r2, #240]	@ 0xf0
 8001f80:	e017      	b.n	8001fb2 <HAL_RCC_OscConfig+0x552>
 8001f82:	4b96      	ldr	r3, [pc, #600]	@ (80021dc <HAL_RCC_OscConfig+0x77c>)
 8001f84:	f8d3 30f0 	ldr.w	r3, [r3, #240]	@ 0xf0
 8001f88:	4a94      	ldr	r2, [pc, #592]	@ (80021dc <HAL_RCC_OscConfig+0x77c>)
 8001f8a:	f023 0301 	bic.w	r3, r3, #1
 8001f8e:	f8c2 30f0 	str.w	r3, [r2, #240]	@ 0xf0
 8001f92:	4b92      	ldr	r3, [pc, #584]	@ (80021dc <HAL_RCC_OscConfig+0x77c>)
 8001f94:	f8d3 30f0 	ldr.w	r3, [r3, #240]	@ 0xf0
 8001f98:	4a90      	ldr	r2, [pc, #576]	@ (80021dc <HAL_RCC_OscConfig+0x77c>)
 8001f9a:	f023 0304 	bic.w	r3, r3, #4
 8001f9e:	f8c2 30f0 	str.w	r3, [r2, #240]	@ 0xf0
 8001fa2:	4b8e      	ldr	r3, [pc, #568]	@ (80021dc <HAL_RCC_OscConfig+0x77c>)
 8001fa4:	f8d3 30f0 	ldr.w	r3, [r3, #240]	@ 0xf0
 8001fa8:	4a8c      	ldr	r2, [pc, #560]	@ (80021dc <HAL_RCC_OscConfig+0x77c>)
 8001faa:	f023 0380 	bic.w	r3, r3, #128	@ 0x80
 8001fae:	f8c2 30f0 	str.w	r3, [r2, #240]	@ 0xf0
 8001fb2:	687b      	ldr	r3, [r7, #4]
 8001fb4:	689b      	ldr	r3, [r3, #8]
 8001fb6:	2b00      	cmp	r3, #0
 8001fb8:	d016      	beq.n	8001fe8 <HAL_RCC_OscConfig+0x588>
 8001fba:	f7fe fd35 	bl	8000a28 <HAL_GetTick>
 8001fbe:	6178      	str	r0, [r7, #20]
 8001fc0:	e00a      	b.n	8001fd8 <HAL_RCC_OscConfig+0x578>
 8001fc2:	f7fe fd31 	bl	8000a28 <HAL_GetTick>
 8001fc6:	4602      	mov	r2, r0
 8001fc8:	697b      	ldr	r3, [r7, #20]
 8001fca:	1ad3      	subs	r3, r2, r3
 8001fcc:	f241 3288 	movw	r2, #5000	@ 0x1388
 8001fd0:	4293      	cmp	r3, r2
 8001fd2:	d901      	bls.n	8001fd8 <HAL_RCC_OscConfig+0x578>
 8001fd4:	2303      	movs	r3, #3
 8001fd6:	e175      	b.n	80022c4 <HAL_RCC_OscConfig+0x864>
 8001fd8:	4b80      	ldr	r3, [pc, #512]	@ (80021dc <HAL_RCC_OscConfig+0x77c>)
 8001fda:	f8d3 30f0 	ldr.w	r3, [r3, #240]	@ 0xf0
 8001fde:	f003 0302 	and.w	r3, r3, #2
 8001fe2:	2b00      	cmp	r3, #0
 8001fe4:	d0ed      	beq.n	8001fc2 <HAL_RCC_OscConfig+0x562>
 8001fe6:	e015      	b.n	8002014 <HAL_RCC_OscConfig+0x5b4>
 8001fe8:	f7fe fd1e 	bl	8000a28 <HAL_GetTick>
 8001fec:	6178      	str	r0, [r7, #20]
 8001fee:	e00a      	b.n	8002006 <HAL_RCC_OscConfig+0x5a6>
 8001ff0:	f7fe fd1a 	bl	8000a28 <HAL_GetTick>
 8001ff4:	4602      	mov	r2, r0
 8001ff6:	697b      	ldr	r3, [r7, #20]
 8001ff8:	1ad3      	subs	r3, r2, r3
 8001ffa:	f241 3288 	movw	r2, #5000	@ 0x1388
 8001ffe:	4293      	cmp	r3, r2
 8002000:	d901      	bls.n	8002006 <HAL_RCC_OscConfig+0x5a6>
 8002002:	2303      	movs	r3, #3
 8002004:	e15e      	b.n	80022c4 <HAL_RCC_OscConfig+0x864>
 8002006:	4b75      	ldr	r3, [pc, #468]	@ (80021dc <HAL_RCC_OscConfig+0x77c>)
 8002008:	f8d3 30f0 	ldr.w	r3, [r3, #240]	@ 0xf0
 800200c:	f003 0302 	and.w	r3, r3, #2
 8002010:	2b00      	cmp	r3, #0
 8002012:	d1ed      	bne.n	8001ff0 <HAL_RCC_OscConfig+0x590>
 8002014:	687b      	ldr	r3, [r7, #4]
 8002016:	681b      	ldr	r3, [r3, #0]
 8002018:	f003 0320 	and.w	r3, r3, #32
 800201c:	2b00      	cmp	r3, #0
 800201e:	d036      	beq.n	800208e <HAL_RCC_OscConfig+0x62e>
 8002020:	687b      	ldr	r3, [r7, #4]
 8002022:	6a5b      	ldr	r3, [r3, #36]	@ 0x24
 8002024:	2b00      	cmp	r3, #0
 8002026:	d019      	beq.n	800205c <HAL_RCC_OscConfig+0x5fc>
 8002028:	4b6c      	ldr	r3, [pc, #432]	@ (80021dc <HAL_RCC_OscConfig+0x77c>)
 800202a:	681b      	ldr	r3, [r3, #0]
 800202c:	4a6b      	ldr	r2, [pc, #428]	@ (80021dc <HAL_RCC_OscConfig+0x77c>)
 800202e:	f443 5380 	orr.w	r3, r3, #4096	@ 0x1000
 8002032:	6013      	str	r3, [r2, #0]
 8002034:	f7fe fcf8 	bl	8000a28 <HAL_GetTick>
 8002038:	6178      	str	r0, [r7, #20]
 800203a:	e008      	b.n	800204e <HAL_RCC_OscConfig+0x5ee>
 800203c:	f7fe fcf4 	bl	8000a28 <HAL_GetTick>
 8002040:	4602      	mov	r2, r0
 8002042:	697b      	ldr	r3, [r7, #20]
 8002044:	1ad3      	subs	r3, r2, r3
 8002046:	2b02      	cmp	r3, #2
 8002048:	d901      	bls.n	800204e <HAL_RCC_OscConfig+0x5ee>
 800204a:	2303      	movs	r3, #3
 800204c:	e13a      	b.n	80022c4 <HAL_RCC_OscConfig+0x864>
 800204e:	4b63      	ldr	r3, [pc, #396]	@ (80021dc <HAL_RCC_OscConfig+0x77c>)
 8002050:	681b      	ldr	r3, [r3, #0]
 8002052:	f403 5300 	and.w	r3, r3, #8192	@ 0x2000
 8002056:	2b00      	cmp	r3, #0
 8002058:	d0f0      	beq.n	800203c <HAL_RCC_OscConfig+0x5dc>
 800205a:	e018      	b.n	800208e <HAL_RCC_OscConfig+0x62e>
 800205c:	4b5f      	ldr	r3, [pc, #380]	@ (80021dc <HAL_RCC_OscConfig+0x77c>)
 800205e:	681b      	ldr	r3, [r3, #0]
 8002060:	4a5e      	ldr	r2, [pc, #376]	@ (80021dc <HAL_RCC_OscConfig+0x77c>)
 8002062:	f423 5380 	bic.w	r3, r3, #4096	@ 0x1000
 8002066:	6013      	str	r3, [r2, #0]
 8002068:	f7fe fcde 	bl	8000a28 <HAL_GetTick>
 800206c:	6178      	str	r0, [r7, #20]
 800206e:	e008      	b.n	8002082 <HAL_RCC_OscConfig+0x622>
 8002070:	f7fe fcda 	bl	8000a28 <HAL_GetTick>
 8002074:	4602      	mov	r2, r0
 8002076:	697b      	ldr	r3, [r7, #20]
 8002078:	1ad3      	subs	r3, r2, r3
 800207a:	2b02      	cmp	r3, #2
 800207c:	d901      	bls.n	8002082 <HAL_RCC_OscConfig+0x622>
 800207e:	2303      	movs	r3, #3
 8002080:	e120      	b.n	80022c4 <HAL_RCC_OscConfig+0x864>
 8002082:	4b56      	ldr	r3, [pc, #344]	@ (80021dc <HAL_RCC_OscConfig+0x77c>)
 8002084:	681b      	ldr	r3, [r3, #0]
 8002086:	f403 5300 	and.w	r3, r3, #8192	@ 0x2000
 800208a:	2b00      	cmp	r3, #0
 800208c:	d1f0      	bne.n	8002070 <HAL_RCC_OscConfig+0x610>
 800208e:	687b      	ldr	r3, [r7, #4]
 8002090:	6a9b      	ldr	r3, [r3, #40]	@ 0x28
 8002092:	2b00      	cmp	r3, #0
 8002094:	f000 8115 	beq.w	80022c2 <HAL_RCC_OscConfig+0x862>
 8002098:	69fb      	ldr	r3, [r7, #28]
 800209a:	2b18      	cmp	r3, #24
 800209c:	f000 80af 	beq.w	80021fe <HAL_RCC_OscConfig+0x79e>
 80020a0:	687b      	ldr	r3, [r7, #4]
 80020a2:	6a9b      	ldr	r3, [r3, #40]	@ 0x28
 80020a4:	2b02      	cmp	r3, #2
 80020a6:	f040 8086 	bne.w	80021b6 <HAL_RCC_OscConfig+0x756>
 80020aa:	4b4c      	ldr	r3, [pc, #304]	@ (80021dc <HAL_RCC_OscConfig+0x77c>)
 80020ac:	681b      	ldr	r3, [r3, #0]
 80020ae:	4a4b      	ldr	r2, [pc, #300]	@ (80021dc <HAL_RCC_OscConfig+0x77c>)
 80020b0:	f023 7380 	bic.w	r3, r3, #16777216	@ 0x1000000
 80020b4:	6013      	str	r3, [r2, #0]
 80020b6:	f7fe fcb7 	bl	8000a28 <HAL_GetTick>
 80020ba:	6178      	str	r0, [r7, #20]
 80020bc:	e008      	b.n	80020d0 <HAL_RCC_OscConfig+0x670>
 80020be:	f7fe fcb3 	bl	8000a28 <HAL_GetTick>
 80020c2:	4602      	mov	r2, r0
 80020c4:	697b      	ldr	r3, [r7, #20]
 80020c6:	1ad3      	subs	r3, r2, r3
 80020c8:	2b02      	cmp	r3, #2
 80020ca:	d901      	bls.n	80020d0 <HAL_RCC_OscConfig+0x670>
 80020cc:	2303      	movs	r3, #3
 80020ce:	e0f9      	b.n	80022c4 <HAL_RCC_OscConfig+0x864>
 80020d0:	4b42      	ldr	r3, [pc, #264]	@ (80021dc <HAL_RCC_OscConfig+0x77c>)
 80020d2:	681b      	ldr	r3, [r3, #0]
 80020d4:	f003 7300 	and.w	r3, r3, #33554432	@ 0x2000000
 80020d8:	2b00      	cmp	r3, #0
 80020da:	d1f0      	bne.n	80020be <HAL_RCC_OscConfig+0x65e>
 80020dc:	4b3f      	ldr	r3, [pc, #252]	@ (80021dc <HAL_RCC_OscConfig+0x77c>)
 80020de:	6a9b      	ldr	r3, [r3, #40]	@ 0x28
 80020e0:	f423 537c 	bic.w	r3, r3, #16128	@ 0x3f00
 80020e4:	f023 0303 	bic.w	r3, r3, #3
 80020e8:	687a      	ldr	r2, [r7, #4]
 80020ea:	6ad1      	ldr	r1, [r2, #44]	@ 0x2c
 80020ec:	687a      	ldr	r2, [r7, #4]
 80020ee:	6b12      	ldr	r2, [r2, #48]	@ 0x30
 80020f0:	0212      	lsls	r2, r2, #8
 80020f2:	430a      	orrs	r2, r1
 80020f4:	4939      	ldr	r1, [pc, #228]	@ (80021dc <HAL_RCC_OscConfig+0x77c>)
 80020f6:	4313      	orrs	r3, r2
 80020f8:	628b      	str	r3, [r1, #40]	@ 0x28
 80020fa:	687b      	ldr	r3, [r7, #4]
 80020fc:	6b5b      	ldr	r3, [r3, #52]	@ 0x34
 80020fe:	3b01      	subs	r3, #1
 8002100:	f3c3 0208 	ubfx	r2, r3, #0, #9
 8002104:	687b      	ldr	r3, [r7, #4]
 8002106:	6b9b      	ldr	r3, [r3, #56]	@ 0x38
 8002108:	3b01      	subs	r3, #1
 800210a:	025b      	lsls	r3, r3, #9
 800210c:	b29b      	uxth	r3, r3
 800210e:	431a      	orrs	r2, r3
 8002110:	687b      	ldr	r3, [r7, #4]
 8002112:	6bdb      	ldr	r3, [r3, #60]	@ 0x3c
 8002114:	3b01      	subs	r3, #1
 8002116:	041b      	lsls	r3, r3, #16
 8002118:	f403 03fe 	and.w	r3, r3, #8323072	@ 0x7f0000
 800211c:	431a      	orrs	r2, r3
 800211e:	687b      	ldr	r3, [r7, #4]
 8002120:	6c1b      	ldr	r3, [r3, #64]	@ 0x40
 8002122:	3b01      	subs	r3, #1
 8002124:	061b      	lsls	r3, r3, #24
 8002126:	f003 43fe 	and.w	r3, r3, #2130706432	@ 0x7f000000
 800212a:	492c      	ldr	r1, [pc, #176]	@ (80021dc <HAL_RCC_OscConfig+0x77c>)
 800212c:	4313      	orrs	r3, r2
 800212e:	634b      	str	r3, [r1, #52]	@ 0x34
 8002130:	4b2a      	ldr	r3, [pc, #168]	@ (80021dc <HAL_RCC_OscConfig+0x77c>)
 8002132:	6a9b      	ldr	r3, [r3, #40]	@ 0x28
 8002134:	4a29      	ldr	r2, [pc, #164]	@ (80021dc <HAL_RCC_OscConfig+0x77c>)
 8002136:	f023 0310 	bic.w	r3, r3, #16
 800213a:	6293      	str	r3, [r2, #40]	@ 0x28
 800213c:	687b      	ldr	r3, [r7, #4]
 800213e:	6cdb      	ldr	r3, [r3, #76]	@ 0x4c
 8002140:	4a26      	ldr	r2, [pc, #152]	@ (80021dc <HAL_RCC_OscConfig+0x77c>)
 8002142:	00db      	lsls	r3, r3, #3
 8002144:	6393      	str	r3, [r2, #56]	@ 0x38
 8002146:	4b25      	ldr	r3, [pc, #148]	@ (80021dc <HAL_RCC_OscConfig+0x77c>)
 8002148:	6a9b      	ldr	r3, [r3, #40]	@ 0x28
 800214a:	4a24      	ldr	r2, [pc, #144]	@ (80021dc <HAL_RCC_OscConfig+0x77c>)
 800214c:	f043 0310 	orr.w	r3, r3, #16
 8002150:	6293      	str	r3, [r2, #40]	@ 0x28
 8002152:	4b22      	ldr	r3, [pc, #136]	@ (80021dc <HAL_RCC_OscConfig+0x77c>)
 8002154:	6a9b      	ldr	r3, [r3, #40]	@ 0x28
 8002156:	f023 020c 	bic.w	r2, r3, #12
 800215a:	687b      	ldr	r3, [r7, #4]
 800215c:	6c5b      	ldr	r3, [r3, #68]	@ 0x44
 800215e:	491f      	ldr	r1, [pc, #124]	@ (80021dc <HAL_RCC_OscConfig+0x77c>)
 8002160:	4313      	orrs	r3, r2
 8002162:	628b      	str	r3, [r1, #40]	@ 0x28
 8002164:	4b1d      	ldr	r3, [pc, #116]	@ (80021dc <HAL_RCC_OscConfig+0x77c>)
 8002166:	6a9b      	ldr	r3, [r3, #40]	@ 0x28
 8002168:	f023 0220 	bic.w	r2, r3, #32
 800216c:	687b      	ldr	r3, [r7, #4]
 800216e:	6c9b      	ldr	r3, [r3, #72]	@ 0x48
 8002170:	491a      	ldr	r1, [pc, #104]	@ (80021dc <HAL_RCC_OscConfig+0x77c>)
 8002172:	4313      	orrs	r3, r2
 8002174:	628b      	str	r3, [r1, #40]	@ 0x28
 8002176:	4b19      	ldr	r3, [pc, #100]	@ (80021dc <HAL_RCC_OscConfig+0x77c>)
 8002178:	6a9b      	ldr	r3, [r3, #40]	@ 0x28
 800217a:	4a18      	ldr	r2, [pc, #96]	@ (80021dc <HAL_RCC_OscConfig+0x77c>)
 800217c:	f443 3380 	orr.w	r3, r3, #65536	@ 0x10000
 8002180:	6293      	str	r3, [r2, #40]	@ 0x28
 8002182:	4b16      	ldr	r3, [pc, #88]	@ (80021dc <HAL_RCC_OscConfig+0x77c>)
 8002184:	681b      	ldr	r3, [r3, #0]
 8002186:	4a15      	ldr	r2, [pc, #84]	@ (80021dc <HAL_RCC_OscConfig+0x77c>)
 8002188:	f043 7380 	orr.w	r3, r3, #16777216	@ 0x1000000
 800218c:	6013      	str	r3, [r2, #0]
 800218e:	f7fe fc4b 	bl	8000a28 <HAL_GetTick>
 8002192:	6178      	str	r0, [r7, #20]
 8002194:	e008      	b.n	80021a8 <HAL_RCC_OscConfig+0x748>
 8002196:	f7fe fc47 	bl	8000a28 <HAL_GetTick>
 800219a:	4602      	mov	r2, r0
 800219c:	697b      	ldr	r3, [r7, #20]
 800219e:	1ad3      	subs	r3, r2, r3
 80021a0:	2b02      	cmp	r3, #2
 80021a2:	d901      	bls.n	80021a8 <HAL_RCC_OscConfig+0x748>
 80021a4:	2303      	movs	r3, #3
 80021a6:	e08d      	b.n	80022c4 <HAL_RCC_OscConfig+0x864>
 80021a8:	4b0c      	ldr	r3, [pc, #48]	@ (80021dc <HAL_RCC_OscConfig+0x77c>)
 80021aa:	681b      	ldr	r3, [r3, #0]
 80021ac:	f003 7300 	and.w	r3, r3, #33554432	@ 0x2000000
 80021b0:	2b00      	cmp	r3, #0
 80021b2:	d0f0      	beq.n	8002196 <HAL_RCC_OscConfig+0x736>
 80021b4:	e085      	b.n	80022c2 <HAL_RCC_OscConfig+0x862>
 80021b6:	4b09      	ldr	r3, [pc, #36]	@ (80021dc <HAL_RCC_OscConfig+0x77c>)
 80021b8:	681b      	ldr	r3, [r3, #0]
 80021ba:	4a08      	ldr	r2, [pc, #32]	@ (80021dc <HAL_RCC_OscConfig+0x77c>)
 80021bc:	f023 7380 	bic.w	r3, r3, #16777216	@ 0x1000000
 80021c0:	6013      	str	r3, [r2, #0]
 80021c2:	f7fe fc31 	bl	8000a28 <HAL_GetTick>
 80021c6:	6178      	str	r0, [r7, #20]
 80021c8:	e00a      	b.n	80021e0 <HAL_RCC_OscConfig+0x780>
 80021ca:	f7fe fc2d 	bl	8000a28 <HAL_GetTick>
 80021ce:	4602      	mov	r2, r0
 80021d0:	697b      	ldr	r3, [r7, #20]
 80021d2:	1ad3      	subs	r3, r2, r3
 80021d4:	2b02      	cmp	r3, #2
 80021d6:	d903      	bls.n	80021e0 <HAL_RCC_OscConfig+0x780>
 80021d8:	2303      	movs	r3, #3
 80021da:	e073      	b.n	80022c4 <HAL_RCC_OscConfig+0x864>
 80021dc:	44020c00 	.word	0x44020c00
 80021e0:	4b3a      	ldr	r3, [pc, #232]	@ (80022cc <HAL_RCC_OscConfig+0x86c>)
 80021e2:	681b      	ldr	r3, [r3, #0]
 80021e4:	f003 7300 	and.w	r3, r3, #33554432	@ 0x2000000
 80021e8:	2b00      	cmp	r3, #0
 80021ea:	d1ee      	bne.n	80021ca <HAL_RCC_OscConfig+0x76a>
 80021ec:	4b37      	ldr	r3, [pc, #220]	@ (80022cc <HAL_RCC_OscConfig+0x86c>)
 80021ee:	6a9b      	ldr	r3, [r3, #40]	@ 0x28
 80021f0:	4a36      	ldr	r2, [pc, #216]	@ (80022cc <HAL_RCC_OscConfig+0x86c>)
 80021f2:	f423 23e0 	bic.w	r3, r3, #458752	@ 0x70000
 80021f6:	f023 0303 	bic.w	r3, r3, #3
 80021fa:	6293      	str	r3, [r2, #40]	@ 0x28
 80021fc:	e061      	b.n	80022c2 <HAL_RCC_OscConfig+0x862>
 80021fe:	4b33      	ldr	r3, [pc, #204]	@ (80022cc <HAL_RCC_OscConfig+0x86c>)
 8002200:	6a9b      	ldr	r3, [r3, #40]	@ 0x28
 8002202:	613b      	str	r3, [r7, #16]
 8002204:	4b31      	ldr	r3, [pc, #196]	@ (80022cc <HAL_RCC_OscConfig+0x86c>)
 8002206:	6b5b      	ldr	r3, [r3, #52]	@ 0x34
 8002208:	60fb      	str	r3, [r7, #12]
 800220a:	687b      	ldr	r3, [r7, #4]
 800220c:	6a9b      	ldr	r3, [r3, #40]	@ 0x28
 800220e:	2b01      	cmp	r3, #1
 8002210:	d031      	beq.n	8002276 <HAL_RCC_OscConfig+0x816>
 8002212:	693b      	ldr	r3, [r7, #16]
 8002214:	f003 0203 	and.w	r2, r3, #3
 8002218:	687b      	ldr	r3, [r7, #4]
 800221a:	6adb      	ldr	r3, [r3, #44]	@ 0x2c
 800221c:	429a      	cmp	r2, r3
 800221e:	d12a      	bne.n	8002276 <HAL_RCC_OscConfig+0x816>
 8002220:	693b      	ldr	r3, [r7, #16]
 8002222:	0a1b      	lsrs	r3, r3, #8
 8002224:	f003 023f 	and.w	r2, r3, #63	@ 0x3f
 8002228:	687b      	ldr	r3, [r7, #4]
 800222a:	6b1b      	ldr	r3, [r3, #48]	@ 0x30
 800222c:	429a      	cmp	r2, r3
 800222e:	d122      	bne.n	8002276 <HAL_RCC_OscConfig+0x816>
 8002230:	68fb      	ldr	r3, [r7, #12]
 8002232:	f3c3 0208 	ubfx	r2, r3, #0, #9
 8002236:	687b      	ldr	r3, [r7, #4]
 8002238:	6b5b      	ldr	r3, [r3, #52]	@ 0x34
 800223a:	3b01      	subs	r3, #1
 800223c:	429a      	cmp	r2, r3
 800223e:	d11a      	bne.n	8002276 <HAL_RCC_OscConfig+0x816>
 8002240:	68fb      	ldr	r3, [r7, #12]
 8002242:	0a5b      	lsrs	r3, r3, #9
 8002244:	f003 027f 	and.w	r2, r3, #127	@ 0x7f
 8002248:	687b      	ldr	r3, [r7, #4]
 800224a:	6b9b      	ldr	r3, [r3, #56]	@ 0x38
 800224c:	3b01      	subs	r3, #1
 800224e:	429a      	cmp	r2, r3
 8002250:	d111      	bne.n	8002276 <HAL_RCC_OscConfig+0x816>
 8002252:	68fb      	ldr	r3, [r7, #12]
 8002254:	0c1b      	lsrs	r3, r3, #16
 8002256:	f003 027f 	and.w	r2, r3, #127	@ 0x7f
 800225a:	687b      	ldr	r3, [r7, #4]
 800225c:	6bdb      	ldr	r3, [r3, #60]	@ 0x3c
 800225e:	3b01      	subs	r3, #1
 8002260:	429a      	cmp	r2, r3
 8002262:	d108      	bne.n	8002276 <HAL_RCC_OscConfig+0x816>
 8002264:	68fb      	ldr	r3, [r7, #12]
 8002266:	0e1b      	lsrs	r3, r3, #24
 8002268:	f003 027f 	and.w	r2, r3, #127	@ 0x7f
 800226c:	687b      	ldr	r3, [r7, #4]
 800226e:	6c1b      	ldr	r3, [r3, #64]	@ 0x40
 8002270:	3b01      	subs	r3, #1
 8002272:	429a      	cmp	r2, r3
 8002274:	d001      	beq.n	800227a <HAL_RCC_OscConfig+0x81a>
 8002276:	2301      	movs	r3, #1
 8002278:	e024      	b.n	80022c4 <HAL_RCC_OscConfig+0x864>
 800227a:	4b14      	ldr	r3, [pc, #80]	@ (80022cc <HAL_RCC_OscConfig+0x86c>)
 800227c:	6b9b      	ldr	r3, [r3, #56]	@ 0x38
 800227e:	08db      	lsrs	r3, r3, #3
 8002280:	f3c3 020c 	ubfx	r2, r3, #0, #13
 8002284:	687b      	ldr	r3, [r7, #4]
 8002286:	6cdb      	ldr	r3, [r3, #76]	@ 0x4c
 8002288:	429a      	cmp	r2, r3
 800228a:	d01a      	beq.n	80022c2 <HAL_RCC_OscConfig+0x862>
 800228c:	4b0f      	ldr	r3, [pc, #60]	@ (80022cc <HAL_RCC_OscConfig+0x86c>)
 800228e:	6a9b      	ldr	r3, [r3, #40]	@ 0x28
 8002290:	4a0e      	ldr	r2, [pc, #56]	@ (80022cc <HAL_RCC_OscConfig+0x86c>)
 8002292:	f023 0310 	bic.w	r3, r3, #16
 8002296:	6293      	str	r3, [r2, #40]	@ 0x28
 8002298:	f7fe fbc6 	bl	8000a28 <HAL_GetTick>
 800229c:	6178      	str	r0, [r7, #20]
 800229e:	bf00      	nop
 80022a0:	f7fe fbc2 	bl	8000a28 <HAL_GetTick>
 80022a4:	4602      	mov	r2, r0
 80022a6:	697b      	ldr	r3, [r7, #20]
 80022a8:	4293      	cmp	r3, r2
 80022aa:	d0f9      	beq.n	80022a0 <HAL_RCC_OscConfig+0x840>
 80022ac:	687b      	ldr	r3, [r7, #4]
 80022ae:	6cdb      	ldr	r3, [r3, #76]	@ 0x4c
 80022b0:	4a06      	ldr	r2, [pc, #24]	@ (80022cc <HAL_RCC_OscConfig+0x86c>)
 80022b2:	00db      	lsls	r3, r3, #3
 80022b4:	6393      	str	r3, [r2, #56]	@ 0x38
 80022b6:	4b05      	ldr	r3, [pc, #20]	@ (80022cc <HAL_RCC_OscConfig+0x86c>)
 80022b8:	6a9b      	ldr	r3, [r3, #40]	@ 0x28
 80022ba:	4a04      	ldr	r2, [pc, #16]	@ (80022cc <HAL_RCC_OscConfig+0x86c>)
 80022bc:	f043 0310 	orr.w	r3, r3, #16
 80022c0:	6293      	str	r3, [r2, #40]	@ 0x28
 80022c2:	2300      	movs	r3, #0
 80022c4:	4618      	mov	r0, r3
 80022c6:	3720      	adds	r7, #32
 80022c8:	46bd      	mov	sp, r7
 80022ca:	bd80      	pop	{r7, pc}
 80022cc:	44020c00 	.word	0x44020c00

080022d0 <HAL_RCC_ClockConfig>:
 80022d0:	b580      	push	{r7, lr}
 80022d2:	b084      	sub	sp, #16
 80022d4:	af00      	add	r7, sp, #0
 80022d6:	6078      	str	r0, [r7, #4]
 80022d8:	6039      	str	r1, [r7, #0]
 80022da:	687b      	ldr	r3, [r7, #4]
 80022dc:	2b00      	cmp	r3, #0
 80022de:	d101      	bne.n	80022e4 <HAL_RCC_ClockConfig+0x14>
 80022e0:	2301      	movs	r3, #1
 80022e2:	e19e      	b.n	8002622 <HAL_RCC_ClockConfig+0x352>
 80022e4:	4b83      	ldr	r3, [pc, #524]	@ (80024f4 <HAL_RCC_ClockConfig+0x224>)
 80022e6:	681b      	ldr	r3, [r3, #0]
 80022e8:	f003 030f 	and.w	r3, r3, #15
 80022ec:	683a      	ldr	r2, [r7, #0]
 80022ee:	429a      	cmp	r2, r3
 80022f0:	d910      	bls.n	8002314 <HAL_RCC_ClockConfig+0x44>
 80022f2:	4b80      	ldr	r3, [pc, #512]	@ (80024f4 <HAL_RCC_ClockConfig+0x224>)
 80022f4:	681b      	ldr	r3, [r3, #0]
 80022f6:	f023 020f 	bic.w	r2, r3, #15
 80022fa:	497e      	ldr	r1, [pc, #504]	@ (80024f4 <HAL_RCC_ClockConfig+0x224>)
 80022fc:	683b      	ldr	r3, [r7, #0]
 80022fe:	4313      	orrs	r3, r2
 8002300:	600b      	str	r3, [r1, #0]
 8002302:	4b7c      	ldr	r3, [pc, #496]	@ (80024f4 <HAL_RCC_ClockConfig+0x224>)
 8002304:	681b      	ldr	r3, [r3, #0]
 8002306:	f003 030f 	and.w	r3, r3, #15
 800230a:	683a      	ldr	r2, [r7, #0]
 800230c:	429a      	cmp	r2, r3
 800230e:	d001      	beq.n	8002314 <HAL_RCC_ClockConfig+0x44>
 8002310:	2301      	movs	r3, #1
 8002312:	e186      	b.n	8002622 <HAL_RCC_ClockConfig+0x352>
 8002314:	687b      	ldr	r3, [r7, #4]
 8002316:	681b      	ldr	r3, [r3, #0]
 8002318:	f003 0310 	and.w	r3, r3, #16
 800231c:	2b00      	cmp	r3, #0
 800231e:	d012      	beq.n	8002346 <HAL_RCC_ClockConfig+0x76>
 8002320:	687b      	ldr	r3, [r7, #4]
 8002322:	695a      	ldr	r2, [r3, #20]
 8002324:	4b74      	ldr	r3, [pc, #464]	@ (80024f8 <HAL_RCC_ClockConfig+0x228>)
 8002326:	6a1b      	ldr	r3, [r3, #32]
 8002328:	0a1b      	lsrs	r3, r3, #8
 800232a:	f003 0370 	and.w	r3, r3, #112	@ 0x70
 800232e:	429a      	cmp	r2, r3
 8002330:	d909      	bls.n	8002346 <HAL_RCC_ClockConfig+0x76>
 8002332:	4b71      	ldr	r3, [pc, #452]	@ (80024f8 <HAL_RCC_ClockConfig+0x228>)
 8002334:	6a1b      	ldr	r3, [r3, #32]
 8002336:	f423 42e0 	bic.w	r2, r3, #28672	@ 0x7000
 800233a:	687b      	ldr	r3, [r7, #4]
 800233c:	695b      	ldr	r3, [r3, #20]
 800233e:	021b      	lsls	r3, r3, #8
 8002340:	496d      	ldr	r1, [pc, #436]	@ (80024f8 <HAL_RCC_ClockConfig+0x228>)
 8002342:	4313      	orrs	r3, r2
 8002344:	620b      	str	r3, [r1, #32]
 8002346:	687b      	ldr	r3, [r7, #4]
 8002348:	681b      	ldr	r3, [r3, #0]
 800234a:	f003 0308 	and.w	r3, r3, #8
 800234e:	2b00      	cmp	r3, #0
 8002350:	d012      	beq.n	8002378 <HAL_RCC_ClockConfig+0xa8>
 8002352:	687b      	ldr	r3, [r7, #4]
 8002354:	691a      	ldr	r2, [r3, #16]
 8002356:	4b68      	ldr	r3, [pc, #416]	@ (80024f8 <HAL_RCC_ClockConfig+0x228>)
 8002358:	6a1b      	ldr	r3, [r3, #32]
 800235a:	091b      	lsrs	r3, r3, #4
 800235c:	f003 0370 	and.w	r3, r3, #112	@ 0x70
 8002360:	429a      	cmp	r2, r3
 8002362:	d909      	bls.n	8002378 <HAL_RCC_ClockConfig+0xa8>
 8002364:	4b64      	ldr	r3, [pc, #400]	@ (80024f8 <HAL_RCC_ClockConfig+0x228>)
 8002366:	6a1b      	ldr	r3, [r3, #32]
 8002368:	f423 62e0 	bic.w	r2, r3, #1792	@ 0x700
 800236c:	687b      	ldr	r3, [r7, #4]
 800236e:	691b      	ldr	r3, [r3, #16]
 8002370:	011b      	lsls	r3, r3, #4
 8002372:	4961      	ldr	r1, [pc, #388]	@ (80024f8 <HAL_RCC_ClockConfig+0x228>)
 8002374:	4313      	orrs	r3, r2
 8002376:	620b      	str	r3, [r1, #32]
 8002378:	687b      	ldr	r3, [r7, #4]
 800237a:	681b      	ldr	r3, [r3, #0]
 800237c:	f003 0304 	and.w	r3, r3, #4
 8002380:	2b00      	cmp	r3, #0
 8002382:	d010      	beq.n	80023a6 <HAL_RCC_ClockConfig+0xd6>
 8002384:	687b      	ldr	r3, [r7, #4]
 8002386:	68da      	ldr	r2, [r3, #12]
 8002388:	4b5b      	ldr	r3, [pc, #364]	@ (80024f8 <HAL_RCC_ClockConfig+0x228>)
 800238a:	6a1b      	ldr	r3, [r3, #32]
 800238c:	f003 0370 	and.w	r3, r3, #112	@ 0x70
 8002390:	429a      	cmp	r2, r3
 8002392:	d908      	bls.n	80023a6 <HAL_RCC_ClockConfig+0xd6>
 8002394:	4b58      	ldr	r3, [pc, #352]	@ (80024f8 <HAL_RCC_ClockConfig+0x228>)
 8002396:	6a1b      	ldr	r3, [r3, #32]
 8002398:	f023 0270 	bic.w	r2, r3, #112	@ 0x70
 800239c:	687b      	ldr	r3, [r7, #4]
 800239e:	68db      	ldr	r3, [r3, #12]
 80023a0:	4955      	ldr	r1, [pc, #340]	@ (80024f8 <HAL_RCC_ClockConfig+0x228>)
 80023a2:	4313      	orrs	r3, r2
 80023a4:	620b      	str	r3, [r1, #32]
 80023a6:	687b      	ldr	r3, [r7, #4]
 80023a8:	681b      	ldr	r3, [r3, #0]
 80023aa:	f003 0302 	and.w	r3, r3, #2
 80023ae:	2b00      	cmp	r3, #0
 80023b0:	d010      	beq.n	80023d4 <HAL_RCC_ClockConfig+0x104>
 80023b2:	687b      	ldr	r3, [r7, #4]
 80023b4:	689a      	ldr	r2, [r3, #8]
 80023b6:	4b50      	ldr	r3, [pc, #320]	@ (80024f8 <HAL_RCC_ClockConfig+0x228>)
 80023b8:	6a1b      	ldr	r3, [r3, #32]
 80023ba:	f003 030f 	and.w	r3, r3, #15
 80023be:	429a      	cmp	r2, r3
 80023c0:	d908      	bls.n	80023d4 <HAL_RCC_ClockConfig+0x104>
 80023c2:	4b4d      	ldr	r3, [pc, #308]	@ (80024f8 <HAL_RCC_ClockConfig+0x228>)
 80023c4:	6a1b      	ldr	r3, [r3, #32]
 80023c6:	f023 020f 	bic.w	r2, r3, #15
 80023ca:	687b      	ldr	r3, [r7, #4]
 80023cc:	689b      	ldr	r3, [r3, #8]
 80023ce:	494a      	ldr	r1, [pc, #296]	@ (80024f8 <HAL_RCC_ClockConfig+0x228>)
 80023d0:	4313      	orrs	r3, r2
 80023d2:	620b      	str	r3, [r1, #32]
 80023d4:	687b      	ldr	r3, [r7, #4]
 80023d6:	681b      	ldr	r3, [r3, #0]
 80023d8:	f003 0301 	and.w	r3, r3, #1
 80023dc:	2b00      	cmp	r3, #0
 80023de:	f000 8093 	beq.w	8002508 <HAL_RCC_ClockConfig+0x238>
 80023e2:	687b      	ldr	r3, [r7, #4]
 80023e4:	685b      	ldr	r3, [r3, #4]
 80023e6:	2b03      	cmp	r3, #3
 80023e8:	d107      	bne.n	80023fa <HAL_RCC_ClockConfig+0x12a>
 80023ea:	4b43      	ldr	r3, [pc, #268]	@ (80024f8 <HAL_RCC_ClockConfig+0x228>)
 80023ec:	681b      	ldr	r3, [r3, #0]
 80023ee:	f003 7300 	and.w	r3, r3, #33554432	@ 0x2000000
 80023f2:	2b00      	cmp	r3, #0
 80023f4:	d121      	bne.n	800243a <HAL_RCC_ClockConfig+0x16a>
 80023f6:	2301      	movs	r3, #1
 80023f8:	e113      	b.n	8002622 <HAL_RCC_ClockConfig+0x352>
 80023fa:	687b      	ldr	r3, [r7, #4]
 80023fc:	685b      	ldr	r3, [r3, #4]
 80023fe:	2b02      	cmp	r3, #2
 8002400:	d107      	bne.n	8002412 <HAL_RCC_ClockConfig+0x142>
 8002402:	4b3d      	ldr	r3, [pc, #244]	@ (80024f8 <HAL_RCC_ClockConfig+0x228>)
 8002404:	681b      	ldr	r3, [r3, #0]
 8002406:	f403 3300 	and.w	r3, r3, #131072	@ 0x20000
 800240a:	2b00      	cmp	r3, #0
 800240c:	d115      	bne.n	800243a <HAL_RCC_ClockConfig+0x16a>
 800240e:	2301      	movs	r3, #1
 8002410:	e107      	b.n	8002622 <HAL_RCC_ClockConfig+0x352>
 8002412:	687b      	ldr	r3, [r7, #4]
 8002414:	685b      	ldr	r3, [r3, #4]
 8002416:	2b01      	cmp	r3, #1
 8002418:	d107      	bne.n	800242a <HAL_RCC_ClockConfig+0x15a>
 800241a:	4b37      	ldr	r3, [pc, #220]	@ (80024f8 <HAL_RCC_ClockConfig+0x228>)
 800241c:	681b      	ldr	r3, [r3, #0]
 800241e:	f403 7300 	and.w	r3, r3, #512	@ 0x200
 8002422:	2b00      	cmp	r3, #0
 8002424:	d109      	bne.n	800243a <HAL_RCC_ClockConfig+0x16a>
 8002426:	2301      	movs	r3, #1
 8002428:	e0fb      	b.n	8002622 <HAL_RCC_ClockConfig+0x352>
 800242a:	4b33      	ldr	r3, [pc, #204]	@ (80024f8 <HAL_RCC_ClockConfig+0x228>)
 800242c:	681b      	ldr	r3, [r3, #0]
 800242e:	f003 0302 	and.w	r3, r3, #2
 8002432:	2b00      	cmp	r3, #0
 8002434:	d101      	bne.n	800243a <HAL_RCC_ClockConfig+0x16a>
 8002436:	2301      	movs	r3, #1
 8002438:	e0f3      	b.n	8002622 <HAL_RCC_ClockConfig+0x352>
 800243a:	4b2f      	ldr	r3, [pc, #188]	@ (80024f8 <HAL_RCC_ClockConfig+0x228>)
 800243c:	69db      	ldr	r3, [r3, #28]
 800243e:	f023 0203 	bic.w	r2, r3, #3
 8002442:	687b      	ldr	r3, [r7, #4]
 8002444:	685b      	ldr	r3, [r3, #4]
 8002446:	492c      	ldr	r1, [pc, #176]	@ (80024f8 <HAL_RCC_ClockConfig+0x228>)
 8002448:	4313      	orrs	r3, r2
 800244a:	61cb      	str	r3, [r1, #28]
 800244c:	f7fe faec 	bl	8000a28 <HAL_GetTick>
 8002450:	60f8      	str	r0, [r7, #12]
 8002452:	687b      	ldr	r3, [r7, #4]
 8002454:	685b      	ldr	r3, [r3, #4]
 8002456:	2b03      	cmp	r3, #3
 8002458:	d112      	bne.n	8002480 <HAL_RCC_ClockConfig+0x1b0>
 800245a:	e00a      	b.n	8002472 <HAL_RCC_ClockConfig+0x1a2>
 800245c:	f7fe fae4 	bl	8000a28 <HAL_GetTick>
 8002460:	4602      	mov	r2, r0
 8002462:	68fb      	ldr	r3, [r7, #12]
 8002464:	1ad3      	subs	r3, r2, r3
 8002466:	f241 3288 	movw	r2, #5000	@ 0x1388
 800246a:	4293      	cmp	r3, r2
 800246c:	d901      	bls.n	8002472 <HAL_RCC_ClockConfig+0x1a2>
 800246e:	2303      	movs	r3, #3
 8002470:	e0d7      	b.n	8002622 <HAL_RCC_ClockConfig+0x352>
 8002472:	4b21      	ldr	r3, [pc, #132]	@ (80024f8 <HAL_RCC_ClockConfig+0x228>)
 8002474:	69db      	ldr	r3, [r3, #28]
 8002476:	f003 0318 	and.w	r3, r3, #24
 800247a:	2b18      	cmp	r3, #24
 800247c:	d1ee      	bne.n	800245c <HAL_RCC_ClockConfig+0x18c>
 800247e:	e043      	b.n	8002508 <HAL_RCC_ClockConfig+0x238>
 8002480:	687b      	ldr	r3, [r7, #4]
 8002482:	685b      	ldr	r3, [r3, #4]
 8002484:	2b02      	cmp	r3, #2
 8002486:	d112      	bne.n	80024ae <HAL_RCC_ClockConfig+0x1de>
 8002488:	e00a      	b.n	80024a0 <HAL_RCC_ClockConfig+0x1d0>
 800248a:	f7fe facd 	bl	8000a28 <HAL_GetTick>
 800248e:	4602      	mov	r2, r0
 8002490:	68fb      	ldr	r3, [r7, #12]
 8002492:	1ad3      	subs	r3, r2, r3
 8002494:	f241 3288 	movw	r2, #5000	@ 0x1388
 8002498:	4293      	cmp	r3, r2
 800249a:	d901      	bls.n	80024a0 <HAL_RCC_ClockConfig+0x1d0>
 800249c:	2303      	movs	r3, #3
 800249e:	e0c0      	b.n	8002622 <HAL_RCC_ClockConfig+0x352>
 80024a0:	4b15      	ldr	r3, [pc, #84]	@ (80024f8 <HAL_RCC_ClockConfig+0x228>)
 80024a2:	69db      	ldr	r3, [r3, #28]
 80024a4:	f003 0318 	and.w	r3, r3, #24
 80024a8:	2b10      	cmp	r3, #16
 80024aa:	d1ee      	bne.n	800248a <HAL_RCC_ClockConfig+0x1ba>
 80024ac:	e02c      	b.n	8002508 <HAL_RCC_ClockConfig+0x238>
 80024ae:	687b      	ldr	r3, [r7, #4]
 80024b0:	685b      	ldr	r3, [r3, #4]
 80024b2:	2b01      	cmp	r3, #1
 80024b4:	d122      	bne.n	80024fc <HAL_RCC_ClockConfig+0x22c>
 80024b6:	e00a      	b.n	80024ce <HAL_RCC_ClockConfig+0x1fe>
 80024b8:	f7fe fab6 	bl	8000a28 <HAL_GetTick>
 80024bc:	4602      	mov	r2, r0
 80024be:	68fb      	ldr	r3, [r7, #12]
 80024c0:	1ad3      	subs	r3, r2, r3
 80024c2:	f241 3288 	movw	r2, #5000	@ 0x1388
 80024c6:	4293      	cmp	r3, r2
 80024c8:	d901      	bls.n	80024ce <HAL_RCC_ClockConfig+0x1fe>
 80024ca:	2303      	movs	r3, #3
 80024cc:	e0a9      	b.n	8002622 <HAL_RCC_ClockConfig+0x352>
 80024ce:	4b0a      	ldr	r3, [pc, #40]	@ (80024f8 <HAL_RCC_ClockConfig+0x228>)
 80024d0:	69db      	ldr	r3, [r3, #28]
 80024d2:	f003 0318 	and.w	r3, r3, #24
 80024d6:	2b08      	cmp	r3, #8
 80024d8:	d1ee      	bne.n	80024b8 <HAL_RCC_ClockConfig+0x1e8>
 80024da:	e015      	b.n	8002508 <HAL_RCC_ClockConfig+0x238>
 80024dc:	f7fe faa4 	bl	8000a28 <HAL_GetTick>
 80024e0:	4602      	mov	r2, r0
 80024e2:	68fb      	ldr	r3, [r7, #12]
 80024e4:	1ad3      	subs	r3, r2, r3
 80024e6:	f241 3288 	movw	r2, #5000	@ 0x1388
 80024ea:	4293      	cmp	r3, r2
 80024ec:	d906      	bls.n	80024fc <HAL_RCC_ClockConfig+0x22c>
 80024ee:	2303      	movs	r3, #3
 80024f0:	e097      	b.n	8002622 <HAL_RCC_ClockConfig+0x352>
 80024f2:	bf00      	nop
 80024f4:	40022000 	.word	0x40022000
 80024f8:	44020c00 	.word	0x44020c00
 80024fc:	4b4b      	ldr	r3, [pc, #300]	@ (800262c <HAL_RCC_ClockConfig+0x35c>)
 80024fe:	69db      	ldr	r3, [r3, #28]
 8002500:	f003 0318 	and.w	r3, r3, #24
 8002504:	2b00      	cmp	r3, #0
 8002506:	d1e9      	bne.n	80024dc <HAL_RCC_ClockConfig+0x20c>
 8002508:	687b      	ldr	r3, [r7, #4]
 800250a:	681b      	ldr	r3, [r3, #0]
 800250c:	f003 0302 	and.w	r3, r3, #2
 8002510:	2b00      	cmp	r3, #0
 8002512:	d010      	beq.n	8002536 <HAL_RCC_ClockConfig+0x266>
 8002514:	687b      	ldr	r3, [r7, #4]
 8002516:	689a      	ldr	r2, [r3, #8]
 8002518:	4b44      	ldr	r3, [pc, #272]	@ (800262c <HAL_RCC_ClockConfig+0x35c>)
 800251a:	6a1b      	ldr	r3, [r3, #32]
 800251c:	f003 030f 	and.w	r3, r3, #15
 8002520:	429a      	cmp	r2, r3
 8002522:	d208      	bcs.n	8002536 <HAL_RCC_ClockConfig+0x266>
 8002524:	4b41      	ldr	r3, [pc, #260]	@ (800262c <HAL_RCC_ClockConfig+0x35c>)
 8002526:	6a1b      	ldr	r3, [r3, #32]
 8002528:	f023 020f 	bic.w	r2, r3, #15
 800252c:	687b      	ldr	r3, [r7, #4]
 800252e:	689b      	ldr	r3, [r3, #8]
 8002530:	493e      	ldr	r1, [pc, #248]	@ (800262c <HAL_RCC_ClockConfig+0x35c>)
 8002532:	4313      	orrs	r3, r2
 8002534:	620b      	str	r3, [r1, #32]
 8002536:	4b3e      	ldr	r3, [pc, #248]	@ (8002630 <HAL_RCC_ClockConfig+0x360>)
 8002538:	681b      	ldr	r3, [r3, #0]
 800253a:	f003 030f 	and.w	r3, r3, #15
 800253e:	683a      	ldr	r2, [r7, #0]
 8002540:	429a      	cmp	r2, r3
 8002542:	d210      	bcs.n	8002566 <HAL_RCC_ClockConfig+0x296>
 8002544:	4b3a      	ldr	r3, [pc, #232]	@ (8002630 <HAL_RCC_ClockConfig+0x360>)
 8002546:	681b      	ldr	r3, [r3, #0]
 8002548:	f023 020f 	bic.w	r2, r3, #15
 800254c:	4938      	ldr	r1, [pc, #224]	@ (8002630 <HAL_RCC_ClockConfig+0x360>)
 800254e:	683b      	ldr	r3, [r7, #0]
 8002550:	4313      	orrs	r3, r2
 8002552:	600b      	str	r3, [r1, #0]
 8002554:	4b36      	ldr	r3, [pc, #216]	@ (8002630 <HAL_RCC_ClockConfig+0x360>)
 8002556:	681b      	ldr	r3, [r3, #0]
 8002558:	f003 030f 	and.w	r3, r3, #15
 800255c:	683a      	ldr	r2, [r7, #0]
 800255e:	429a      	cmp	r2, r3
 8002560:	d001      	beq.n	8002566 <HAL_RCC_ClockConfig+0x296>
 8002562:	2301      	movs	r3, #1
 8002564:	e05d      	b.n	8002622 <HAL_RCC_ClockConfig+0x352>
 8002566:	687b      	ldr	r3, [r7, #4]
 8002568:	681b      	ldr	r3, [r3, #0]
 800256a:	f003 0304 	and.w	r3, r3, #4
 800256e:	2b00      	cmp	r3, #0
 8002570:	d010      	beq.n	8002594 <HAL_RCC_ClockConfig+0x2c4>
 8002572:	687b      	ldr	r3, [r7, #4]
 8002574:	68da      	ldr	r2, [r3, #12]
 8002576:	4b2d      	ldr	r3, [pc, #180]	@ (800262c <HAL_RCC_ClockConfig+0x35c>)
 8002578:	6a1b      	ldr	r3, [r3, #32]
 800257a:	f003 0370 	and.w	r3, r3, #112	@ 0x70
 800257e:	429a      	cmp	r2, r3
 8002580:	d208      	bcs.n	8002594 <HAL_RCC_ClockConfig+0x2c4>
 8002582:	4b2a      	ldr	r3, [pc, #168]	@ (800262c <HAL_RCC_ClockConfig+0x35c>)
 8002584:	6a1b      	ldr	r3, [r3, #32]
 8002586:	f023 0270 	bic.w	r2, r3, #112	@ 0x70
 800258a:	687b      	ldr	r3, [r7, #4]
 800258c:	68db      	ldr	r3, [r3, #12]
 800258e:	4927      	ldr	r1, [pc, #156]	@ (800262c <HAL_RCC_ClockConfig+0x35c>)
 8002590:	4313      	orrs	r3, r2
 8002592:	620b      	str	r3, [r1, #32]
 8002594:	687b      	ldr	r3, [r7, #4]
 8002596:	681b      	ldr	r3, [r3, #0]
 8002598:	f003 0308 	and.w	r3, r3, #8
 800259c:	2b00      	cmp	r3, #0
 800259e:	d012      	beq.n	80025c6 <HAL_RCC_ClockConfig+0x2f6>
 80025a0:	687b      	ldr	r3, [r7, #4]
 80025a2:	691a      	ldr	r2, [r3, #16]
 80025a4:	4b21      	ldr	r3, [pc, #132]	@ (800262c <HAL_RCC_ClockConfig+0x35c>)
 80025a6:	6a1b      	ldr	r3, [r3, #32]
 80025a8:	091b      	lsrs	r3, r3, #4
 80025aa:	f003 0370 	and.w	r3, r3, #112	@ 0x70
 80025ae:	429a      	cmp	r2, r3
 80025b0:	d209      	bcs.n	80025c6 <HAL_RCC_ClockConfig+0x2f6>
 80025b2:	4b1e      	ldr	r3, [pc, #120]	@ (800262c <HAL_RCC_ClockConfig+0x35c>)
 80025b4:	6a1b      	ldr	r3, [r3, #32]
 80025b6:	f423 62e0 	bic.w	r2, r3, #1792	@ 0x700
 80025ba:	687b      	ldr	r3, [r7, #4]
 80025bc:	691b      	ldr	r3, [r3, #16]
 80025be:	011b      	lsls	r3, r3, #4
 80025c0:	491a      	ldr	r1, [pc, #104]	@ (800262c <HAL_RCC_ClockConfig+0x35c>)
 80025c2:	4313      	orrs	r3, r2
 80025c4:	620b      	str	r3, [r1, #32]
 80025c6:	687b      	ldr	r3, [r7, #4]
 80025c8:	681b      	ldr	r3, [r3, #0]
 80025ca:	f003 0310 	and.w	r3, r3, #16
 80025ce:	2b00      	cmp	r3, #0
 80025d0:	d012      	beq.n	80025f8 <HAL_RCC_ClockConfig+0x328>
 80025d2:	687b      	ldr	r3, [r7, #4]
 80025d4:	695a      	ldr	r2, [r3, #20]
 80025d6:	4b15      	ldr	r3, [pc, #84]	@ (800262c <HAL_RCC_ClockConfig+0x35c>)
 80025d8:	6a1b      	ldr	r3, [r3, #32]
 80025da:	0a1b      	lsrs	r3, r3, #8
 80025dc:	f003 0370 	and.w	r3, r3, #112	@ 0x70
 80025e0:	429a      	cmp	r2, r3
 80025e2:	d209      	bcs.n	80025f8 <HAL_RCC_ClockConfig+0x328>
 80025e4:	4b11      	ldr	r3, [pc, #68]	@ (800262c <HAL_RCC_ClockConfig+0x35c>)
 80025e6:	6a1b      	ldr	r3, [r3, #32]
 80025e8:	f423 42e0 	bic.w	r2, r3, #28672	@ 0x7000
 80025ec:	687b      	ldr	r3, [r7, #4]
 80025ee:	695b      	ldr	r3, [r3, #20]
 80025f0:	021b      	lsls	r3, r3, #8
 80025f2:	490e      	ldr	r1, [pc, #56]	@ (800262c <HAL_RCC_ClockConfig+0x35c>)
 80025f4:	4313      	orrs	r3, r2
 80025f6:	620b      	str	r3, [r1, #32]
 80025f8:	f000 f88c 	bl	8002714 <HAL_RCC_GetSysClockFreq>
 80025fc:	4602      	mov	r2, r0
 80025fe:	4b0b      	ldr	r3, [pc, #44]	@ (800262c <HAL_RCC_ClockConfig+0x35c>)
 8002600:	6a1b      	ldr	r3, [r3, #32]
 8002602:	f003 030f 	and.w	r3, r3, #15
 8002606:	490b      	ldr	r1, [pc, #44]	@ (8002634 <HAL_RCC_ClockConfig+0x364>)
 8002608:	5ccb      	ldrb	r3, [r1, r3]
 800260a:	fa22 f303 	lsr.w	r3, r2, r3
 800260e:	4a0a      	ldr	r2, [pc, #40]	@ (8002638 <HAL_RCC_ClockConfig+0x368>)
 8002610:	6013      	str	r3, [r2, #0]
 8002612:	4b0a      	ldr	r3, [pc, #40]	@ (800263c <HAL_RCC_ClockConfig+0x36c>)
 8002614:	681b      	ldr	r3, [r3, #0]
 8002616:	4618      	mov	r0, r3
 8002618:	f7fe f97c 	bl	8000914 <HAL_InitTick>
 800261c:	4603      	mov	r3, r0
 800261e:	72fb      	strb	r3, [r7, #11]
 8002620:	7afb      	ldrb	r3, [r7, #11]
 8002622:	4618      	mov	r0, r3
 8002624:	3710      	adds	r7, #16
 8002626:	46bd      	mov	sp, r7
 8002628:	bd80      	pop	{r7, pc}
 800262a:	bf00      	nop
 800262c:	44020c00 	.word	0x44020c00
 8002630:	40022000 	.word	0x40022000
 8002634:	08003554 	.word	0x08003554
 8002638:	20000000 	.word	0x20000000
 800263c:	20000004 	.word	0x20000004

08002640 <HAL_RCC_MCOConfig>:
 8002640:	b580      	push	{r7, lr}
 8002642:	b08c      	sub	sp, #48	@ 0x30
 8002644:	af00      	add	r7, sp, #0
 8002646:	60f8      	str	r0, [r7, #12]
 8002648:	60b9      	str	r1, [r7, #8]
 800264a:	607a      	str	r2, [r7, #4]
 800264c:	68fb      	ldr	r3, [r7, #12]
 800264e:	2b00      	cmp	r3, #0
 8002650:	d12a      	bne.n	80026a8 <HAL_RCC_MCOConfig+0x68>
 8002652:	4b2d      	ldr	r3, [pc, #180]	@ (8002708 <HAL_RCC_MCOConfig+0xc8>)
 8002654:	f8d3 308c 	ldr.w	r3, [r3, #140]	@ 0x8c
 8002658:	4a2b      	ldr	r2, [pc, #172]	@ (8002708 <HAL_RCC_MCOConfig+0xc8>)
 800265a:	f043 0301 	orr.w	r3, r3, #1
 800265e:	f8c2 308c 	str.w	r3, [r2, #140]	@ 0x8c
 8002662:	4b29      	ldr	r3, [pc, #164]	@ (8002708 <HAL_RCC_MCOConfig+0xc8>)
 8002664:	f8d3 308c 	ldr.w	r3, [r3, #140]	@ 0x8c
 8002668:	f003 0301 	and.w	r3, r3, #1
 800266c:	61bb      	str	r3, [r7, #24]
 800266e:	69bb      	ldr	r3, [r7, #24]
 8002670:	f44f 7380 	mov.w	r3, #256	@ 0x100
 8002674:	61fb      	str	r3, [r7, #28]
 8002676:	2302      	movs	r3, #2
 8002678:	623b      	str	r3, [r7, #32]
 800267a:	2303      	movs	r3, #3
 800267c:	62bb      	str	r3, [r7, #40]	@ 0x28
 800267e:	2300      	movs	r3, #0
 8002680:	627b      	str	r3, [r7, #36]	@ 0x24
 8002682:	2300      	movs	r3, #0
 8002684:	62fb      	str	r3, [r7, #44]	@ 0x2c
 8002686:	f107 031c 	add.w	r3, r7, #28
 800268a:	4619      	mov	r1, r3
 800268c:	481f      	ldr	r0, [pc, #124]	@ (800270c <HAL_RCC_MCOConfig+0xcc>)
 800268e:	f7fe fdc7 	bl	8001220 <HAL_GPIO_Init>
 8002692:	4b1d      	ldr	r3, [pc, #116]	@ (8002708 <HAL_RCC_MCOConfig+0xc8>)
 8002694:	69db      	ldr	r3, [r3, #28]
 8002696:	f023 72fe 	bic.w	r2, r3, #33292288	@ 0x1fc0000
 800269a:	68b9      	ldr	r1, [r7, #8]
 800269c:	687b      	ldr	r3, [r7, #4]
 800269e:	430b      	orrs	r3, r1
 80026a0:	4919      	ldr	r1, [pc, #100]	@ (8002708 <HAL_RCC_MCOConfig+0xc8>)
 80026a2:	4313      	orrs	r3, r2
 80026a4:	61cb      	str	r3, [r1, #28]
 80026a6:	e02a      	b.n	80026fe <HAL_RCC_MCOConfig+0xbe>
 80026a8:	4b17      	ldr	r3, [pc, #92]	@ (8002708 <HAL_RCC_MCOConfig+0xc8>)
 80026aa:	f8d3 308c 	ldr.w	r3, [r3, #140]	@ 0x8c
 80026ae:	4a16      	ldr	r2, [pc, #88]	@ (8002708 <HAL_RCC_MCOConfig+0xc8>)
 80026b0:	f043 0304 	orr.w	r3, r3, #4
 80026b4:	f8c2 308c 	str.w	r3, [r2, #140]	@ 0x8c
 80026b8:	4b13      	ldr	r3, [pc, #76]	@ (8002708 <HAL_RCC_MCOConfig+0xc8>)
 80026ba:	f8d3 308c 	ldr.w	r3, [r3, #140]	@ 0x8c
 80026be:	f003 0304 	and.w	r3, r3, #4
 80026c2:	617b      	str	r3, [r7, #20]
 80026c4:	697b      	ldr	r3, [r7, #20]
 80026c6:	f44f 7300 	mov.w	r3, #512	@ 0x200
 80026ca:	61fb      	str	r3, [r7, #28]
 80026cc:	2302      	movs	r3, #2
 80026ce:	623b      	str	r3, [r7, #32]
 80026d0:	2303      	movs	r3, #3
 80026d2:	62bb      	str	r3, [r7, #40]	@ 0x28
 80026d4:	2300      	movs	r3, #0
 80026d6:	627b      	str	r3, [r7, #36]	@ 0x24
 80026d8:	2300      	movs	r3, #0
 80026da:	62fb      	str	r3, [r7, #44]	@ 0x2c
 80026dc:	f107 031c 	add.w	r3, r7, #28
 80026e0:	4619      	mov	r1, r3
 80026e2:	480b      	ldr	r0, [pc, #44]	@ (8002710 <HAL_RCC_MCOConfig+0xd0>)
 80026e4:	f7fe fd9c 	bl	8001220 <HAL_GPIO_Init>
 80026e8:	4b07      	ldr	r3, [pc, #28]	@ (8002708 <HAL_RCC_MCOConfig+0xc8>)
 80026ea:	69db      	ldr	r3, [r3, #28]
 80026ec:	f023 427e 	bic.w	r2, r3, #4261412864	@ 0xfe000000
 80026f0:	687b      	ldr	r3, [r7, #4]
 80026f2:	01d9      	lsls	r1, r3, #7
 80026f4:	68bb      	ldr	r3, [r7, #8]
 80026f6:	430b      	orrs	r3, r1
 80026f8:	4903      	ldr	r1, [pc, #12]	@ (8002708 <HAL_RCC_MCOConfig+0xc8>)
 80026fa:	4313      	orrs	r3, r2
 80026fc:	61cb      	str	r3, [r1, #28]
 80026fe:	bf00      	nop
 8002700:	3730      	adds	r7, #48	@ 0x30
 8002702:	46bd      	mov	sp, r7
 8002704:	bd80      	pop	{r7, pc}
 8002706:	bf00      	nop
 8002708:	44020c00 	.word	0x44020c00
 800270c:	42020000 	.word	0x42020000
 8002710:	42020800 	.word	0x42020800

08002714 <HAL_RCC_GetSysClockFreq>:
 8002714:	b480      	push	{r7}
 8002716:	b089      	sub	sp, #36	@ 0x24
 8002718:	af00      	add	r7, sp, #0
 800271a:	4b8c      	ldr	r3, [pc, #560]	@ (800294c <HAL_RCC_GetSysClockFreq+0x238>)
 800271c:	69db      	ldr	r3, [r3, #28]
 800271e:	f003 0318 	and.w	r3, r3, #24
 8002722:	2b08      	cmp	r3, #8
 8002724:	d102      	bne.n	800272c <HAL_RCC_GetSysClockFreq+0x18>
 8002726:	4b8a      	ldr	r3, [pc, #552]	@ (8002950 <HAL_RCC_GetSysClockFreq+0x23c>)
 8002728:	61fb      	str	r3, [r7, #28]
 800272a:	e107      	b.n	800293c <HAL_RCC_GetSysClockFreq+0x228>
 800272c:	4b87      	ldr	r3, [pc, #540]	@ (800294c <HAL_RCC_GetSysClockFreq+0x238>)
 800272e:	69db      	ldr	r3, [r3, #28]
 8002730:	f003 0318 	and.w	r3, r3, #24
 8002734:	2b00      	cmp	r3, #0
 8002736:	d112      	bne.n	800275e <HAL_RCC_GetSysClockFreq+0x4a>
 8002738:	4b84      	ldr	r3, [pc, #528]	@ (800294c <HAL_RCC_GetSysClockFreq+0x238>)
 800273a:	681b      	ldr	r3, [r3, #0]
 800273c:	f003 0320 	and.w	r3, r3, #32
 8002740:	2b00      	cmp	r3, #0
 8002742:	d009      	beq.n	8002758 <HAL_RCC_GetSysClockFreq+0x44>
 8002744:	4b81      	ldr	r3, [pc, #516]	@ (800294c <HAL_RCC_GetSysClockFreq+0x238>)
 8002746:	681b      	ldr	r3, [r3, #0]
 8002748:	08db      	lsrs	r3, r3, #3
 800274a:	f003 0303 	and.w	r3, r3, #3
 800274e:	4a81      	ldr	r2, [pc, #516]	@ (8002954 <HAL_RCC_GetSysClockFreq+0x240>)
 8002750:	fa22 f303 	lsr.w	r3, r2, r3
 8002754:	61fb      	str	r3, [r7, #28]
 8002756:	e0f1      	b.n	800293c <HAL_RCC_GetSysClockFreq+0x228>
 8002758:	4b7e      	ldr	r3, [pc, #504]	@ (8002954 <HAL_RCC_GetSysClockFreq+0x240>)
 800275a:	61fb      	str	r3, [r7, #28]
 800275c:	e0ee      	b.n	800293c <HAL_RCC_GetSysClockFreq+0x228>
 800275e:	4b7b      	ldr	r3, [pc, #492]	@ (800294c <HAL_RCC_GetSysClockFreq+0x238>)
 8002760:	69db      	ldr	r3, [r3, #28]
 8002762:	f003 0318 	and.w	r3, r3, #24
 8002766:	2b10      	cmp	r3, #16
 8002768:	d102      	bne.n	8002770 <HAL_RCC_GetSysClockFreq+0x5c>
 800276a:	4b7b      	ldr	r3, [pc, #492]	@ (8002958 <HAL_RCC_GetSysClockFreq+0x244>)
 800276c:	61fb      	str	r3, [r7, #28]
 800276e:	e0e5      	b.n	800293c <HAL_RCC_GetSysClockFreq+0x228>
 8002770:	4b76      	ldr	r3, [pc, #472]	@ (800294c <HAL_RCC_GetSysClockFreq+0x238>)
 8002772:	69db      	ldr	r3, [r3, #28]
 8002774:	f003 0318 	and.w	r3, r3, #24
 8002778:	2b18      	cmp	r3, #24
 800277a:	f040 80dd 	bne.w	8002938 <HAL_RCC_GetSysClockFreq+0x224>
 800277e:	4b73      	ldr	r3, [pc, #460]	@ (800294c <HAL_RCC_GetSysClockFreq+0x238>)
 8002780:	6a9b      	ldr	r3, [r3, #40]	@ 0x28
 8002782:	f003 0303 	and.w	r3, r3, #3
 8002786:	617b      	str	r3, [r7, #20]
 8002788:	4b70      	ldr	r3, [pc, #448]	@ (800294c <HAL_RCC_GetSysClockFreq+0x238>)
 800278a:	6a9b      	ldr	r3, [r3, #40]	@ 0x28
 800278c:	0a1b      	lsrs	r3, r3, #8
 800278e:	f003 033f 	and.w	r3, r3, #63	@ 0x3f
 8002792:	613b      	str	r3, [r7, #16]
 8002794:	4b6d      	ldr	r3, [pc, #436]	@ (800294c <HAL_RCC_GetSysClockFreq+0x238>)
 8002796:	6a9b      	ldr	r3, [r3, #40]	@ 0x28
 8002798:	091b      	lsrs	r3, r3, #4
 800279a:	f003 0301 	and.w	r3, r3, #1
 800279e:	60fb      	str	r3, [r7, #12]
 80027a0:	4b6a      	ldr	r3, [pc, #424]	@ (800294c <HAL_RCC_GetSysClockFreq+0x238>)
 80027a2:	6b9b      	ldr	r3, [r3, #56]	@ 0x38
 80027a4:	08db      	lsrs	r3, r3, #3
 80027a6:	f3c3 030c 	ubfx	r3, r3, #0, #13
 80027aa:	68fa      	ldr	r2, [r7, #12]
 80027ac:	fb02 f303 	mul.w	r3, r2, r3
 80027b0:	ee07 3a90 	vmov	s15, r3
 80027b4:	eef8 7a67 	vcvt.f32.u32	s15, s15
 80027b8:	edc7 7a02 	vstr	s15, [r7, #8]
 80027bc:	693b      	ldr	r3, [r7, #16]
 80027be:	2b00      	cmp	r3, #0
 80027c0:	f000 80b7 	beq.w	8002932 <HAL_RCC_GetSysClockFreq+0x21e>
 80027c4:	697b      	ldr	r3, [r7, #20]
 80027c6:	2b01      	cmp	r3, #1
 80027c8:	d003      	beq.n	80027d2 <HAL_RCC_GetSysClockFreq+0xbe>
 80027ca:	697b      	ldr	r3, [r7, #20]
 80027cc:	2b03      	cmp	r3, #3
 80027ce:	d056      	beq.n	800287e <HAL_RCC_GetSysClockFreq+0x16a>
 80027d0:	e077      	b.n	80028c2 <HAL_RCC_GetSysClockFreq+0x1ae>
 80027d2:	4b5e      	ldr	r3, [pc, #376]	@ (800294c <HAL_RCC_GetSysClockFreq+0x238>)
 80027d4:	681b      	ldr	r3, [r3, #0]
 80027d6:	f003 0320 	and.w	r3, r3, #32
 80027da:	2b00      	cmp	r3, #0
 80027dc:	d02d      	beq.n	800283a <HAL_RCC_GetSysClockFreq+0x126>
 80027de:	4b5b      	ldr	r3, [pc, #364]	@ (800294c <HAL_RCC_GetSysClockFreq+0x238>)
 80027e0:	681b      	ldr	r3, [r3, #0]
 80027e2:	08db      	lsrs	r3, r3, #3
 80027e4:	f003 0303 	and.w	r3, r3, #3
 80027e8:	4a5a      	ldr	r2, [pc, #360]	@ (8002954 <HAL_RCC_GetSysClockFreq+0x240>)
 80027ea:	fa22 f303 	lsr.w	r3, r2, r3
 80027ee:	607b      	str	r3, [r7, #4]
 80027f0:	687b      	ldr	r3, [r7, #4]
 80027f2:	ee07 3a90 	vmov	s15, r3
 80027f6:	eef8 6a67 	vcvt.f32.u32	s13, s15
 80027fa:	693b      	ldr	r3, [r7, #16]
 80027fc:	ee07 3a90 	vmov	s15, r3
 8002800:	eef8 7a67 	vcvt.f32.u32	s15, s15
 8002804:	ee86 7aa7 	vdiv.f32	s14, s13, s15
 8002808:	4b50      	ldr	r3, [pc, #320]	@ (800294c <HAL_RCC_GetSysClockFreq+0x238>)
 800280a:	6b5b      	ldr	r3, [r3, #52]	@ 0x34
 800280c:	f3c3 0308 	ubfx	r3, r3, #0, #9
 8002810:	ee07 3a90 	vmov	s15, r3
 8002814:	eef8 6a67 	vcvt.f32.u32	s13, s15
 8002818:	ed97 6a02 	vldr	s12, [r7, #8]
 800281c:	eddf 5a4f 	vldr	s11, [pc, #316]	@ 800295c <HAL_RCC_GetSysClockFreq+0x248>
 8002820:	eec6 7a25 	vdiv.f32	s15, s12, s11
 8002824:	ee76 7aa7 	vadd.f32	s15, s13, s15
 8002828:	eef7 6a00 	vmov.f32	s13, #112	@ 0x3f800000  1.0
 800282c:	ee77 7aa6 	vadd.f32	s15, s15, s13
 8002830:	ee67 7a27 	vmul.f32	s15, s14, s15
 8002834:	edc7 7a06 	vstr	s15, [r7, #24]
 8002838:	e065      	b.n	8002906 <HAL_RCC_GetSysClockFreq+0x1f2>
 800283a:	693b      	ldr	r3, [r7, #16]
 800283c:	ee07 3a90 	vmov	s15, r3
 8002840:	eef8 7a67 	vcvt.f32.u32	s15, s15
 8002844:	eddf 6a46 	vldr	s13, [pc, #280]	@ 8002960 <HAL_RCC_GetSysClockFreq+0x24c>
 8002848:	ee86 7aa7 	vdiv.f32	s14, s13, s15
 800284c:	4b3f      	ldr	r3, [pc, #252]	@ (800294c <HAL_RCC_GetSysClockFreq+0x238>)
 800284e:	6b5b      	ldr	r3, [r3, #52]	@ 0x34
 8002850:	f3c3 0308 	ubfx	r3, r3, #0, #9
 8002854:	ee07 3a90 	vmov	s15, r3
 8002858:	eef8 6a67 	vcvt.f32.u32	s13, s15
 800285c:	ed97 6a02 	vldr	s12, [r7, #8]
 8002860:	eddf 5a3e 	vldr	s11, [pc, #248]	@ 800295c <HAL_RCC_GetSysClockFreq+0x248>
 8002864:	eec6 7a25 	vdiv.f32	s15, s12, s11
 8002868:	ee76 7aa7 	vadd.f32	s15, s13, s15
 800286c:	eef7 6a00 	vmov.f32	s13, #112	@ 0x3f800000  1.0
 8002870:	ee77 7aa6 	vadd.f32	s15, s15, s13
 8002874:	ee67 7a27 	vmul.f32	s15, s14, s15
 8002878:	edc7 7a06 	vstr	s15, [r7, #24]
 800287c:	e043      	b.n	8002906 <HAL_RCC_GetSysClockFreq+0x1f2>
 800287e:	693b      	ldr	r3, [r7, #16]
 8002880:	ee07 3a90 	vmov	s15, r3
 8002884:	eef8 7a67 	vcvt.f32.u32	s15, s15
 8002888:	eddf 6a36 	vldr	s13, [pc, #216]	@ 8002964 <HAL_RCC_GetSysClockFreq+0x250>
 800288c:	ee86 7aa7 	vdiv.f32	s14, s13, s15
 8002890:	4b2e      	ldr	r3, [pc, #184]	@ (800294c <HAL_RCC_GetSysClockFreq+0x238>)
 8002892:	6b5b      	ldr	r3, [r3, #52]	@ 0x34
 8002894:	f3c3 0308 	ubfx	r3, r3, #0, #9
 8002898:	ee07 3a90 	vmov	s15, r3
 800289c:	eef8 6a67 	vcvt.f32.u32	s13, s15
 80028a0:	ed97 6a02 	vldr	s12, [r7, #8]
 80028a4:	eddf 5a2d 	vldr	s11, [pc, #180]	@ 800295c <HAL_RCC_GetSysClockFreq+0x248>
 80028a8:	eec6 7a25 	vdiv.f32	s15, s12, s11
 80028ac:	ee76 7aa7 	vadd.f32	s15, s13, s15
 80028b0:	eef7 6a00 	vmov.f32	s13, #112	@ 0x3f800000  1.0
 80028b4:	ee77 7aa6 	vadd.f32	s15, s15, s13
 80028b8:	ee67 7a27 	vmul.f32	s15, s14, s15
 80028bc:	edc7 7a06 	vstr	s15, [r7, #24]
 80028c0:	e021      	b.n	8002906 <HAL_RCC_GetSysClockFreq+0x1f2>
 80028c2:	693b      	ldr	r3, [r7, #16]
 80028c4:	ee07 3a90 	vmov	s15, r3
 80028c8:	eef8 7a67 	vcvt.f32.u32	s15, s15
 80028cc:	eddf 6a26 	vldr	s13, [pc, #152]	@ 8002968 <HAL_RCC_GetSysClockFreq+0x254>
 80028d0:	ee86 7aa7 	vdiv.f32	s14, s13, s15
 80028d4:	4b1d      	ldr	r3, [pc, #116]	@ (800294c <HAL_RCC_GetSysClockFreq+0x238>)
 80028d6:	6b5b      	ldr	r3, [r3, #52]	@ 0x34
 80028d8:	f3c3 0308 	ubfx	r3, r3, #0, #9
 80028dc:	ee07 3a90 	vmov	s15, r3
 80028e0:	eef8 6a67 	vcvt.f32.u32	s13, s15
 80028e4:	ed97 6a02 	vldr	s12, [r7, #8]
 80028e8:	eddf 5a1c 	vldr	s11, [pc, #112]	@ 800295c <HAL_RCC_GetSysClockFreq+0x248>
 80028ec:	eec6 7a25 	vdiv.f32	s15, s12, s11
 80028f0:	ee76 7aa7 	vadd.f32	s15, s13, s15
 80028f4:	eef7 6a00 	vmov.f32	s13, #112	@ 0x3f800000  1.0
 80028f8:	ee77 7aa6 	vadd.f32	s15, s15, s13
 80028fc:	ee67 7a27 	vmul.f32	s15, s14, s15
 8002900:	edc7 7a06 	vstr	s15, [r7, #24]
 8002904:	bf00      	nop
 8002906:	4b11      	ldr	r3, [pc, #68]	@ (800294c <HAL_RCC_GetSysClockFreq+0x238>)
 8002908:	6b5b      	ldr	r3, [r3, #52]	@ 0x34
 800290a:	0a5b      	lsrs	r3, r3, #9
 800290c:	f003 037f 	and.w	r3, r3, #127	@ 0x7f
 8002910:	3301      	adds	r3, #1
 8002912:	603b      	str	r3, [r7, #0]
 8002914:	683b      	ldr	r3, [r7, #0]
 8002916:	ee07 3a90 	vmov	s15, r3
 800291a:	eeb8 7a67 	vcvt.f32.u32	s14, s15
 800291e:	edd7 6a06 	vldr	s13, [r7, #24]
 8002922:	eec6 7a87 	vdiv.f32	s15, s13, s14
 8002926:	eefc 7ae7 	vcvt.u32.f32	s15, s15
 800292a:	ee17 3a90 	vmov	r3, s15
 800292e:	61fb      	str	r3, [r7, #28]
 8002930:	e004      	b.n	800293c <HAL_RCC_GetSysClockFreq+0x228>
 8002932:	2300      	movs	r3, #0
 8002934:	61fb      	str	r3, [r7, #28]
 8002936:	e001      	b.n	800293c <HAL_RCC_GetSysClockFreq+0x228>
 8002938:	4b06      	ldr	r3, [pc, #24]	@ (8002954 <HAL_RCC_GetSysClockFreq+0x240>)
 800293a:	61fb      	str	r3, [r7, #28]
 800293c:	69fb      	ldr	r3, [r7, #28]
 800293e:	4618      	mov	r0, r3
 8002940:	3724      	adds	r7, #36	@ 0x24
 8002942:	46bd      	mov	sp, r7
 8002944:	f85d 7b04 	ldr.w	r7, [sp], #4
 8002948:	4770      	bx	lr
 800294a:	bf00      	nop
 800294c:	44020c00 	.word	0x44020c00
 8002950:	003d0900 	.word	0x003d0900
 8002954:	03d09000 	.word	0x03d09000
 8002958:	017d7840 	.word	0x017d7840
 800295c:	46000000 	.word	0x46000000
 8002960:	4c742400 	.word	0x4c742400
 8002964:	4bbebc20 	.word	0x4bbebc20
 8002968:	4a742400 	.word	0x4a742400

0800296c <HAL_RCC_GetHCLKFreq>:
 800296c:	b580      	push	{r7, lr}
 800296e:	af00      	add	r7, sp, #0
 8002970:	f7ff fed0 	bl	8002714 <HAL_RCC_GetSysClockFreq>
 8002974:	4602      	mov	r2, r0
 8002976:	4b08      	ldr	r3, [pc, #32]	@ (8002998 <HAL_RCC_GetHCLKFreq+0x2c>)
 8002978:	6a1b      	ldr	r3, [r3, #32]
 800297a:	f003 030f 	and.w	r3, r3, #15
 800297e:	4907      	ldr	r1, [pc, #28]	@ (800299c <HAL_RCC_GetHCLKFreq+0x30>)
 8002980:	5ccb      	ldrb	r3, [r1, r3]
 8002982:	f003 031f 	and.w	r3, r3, #31
 8002986:	fa22 f303 	lsr.w	r3, r2, r3
 800298a:	4a05      	ldr	r2, [pc, #20]	@ (80029a0 <HAL_RCC_GetHCLKFreq+0x34>)
 800298c:	6013      	str	r3, [r2, #0]
 800298e:	4b04      	ldr	r3, [pc, #16]	@ (80029a0 <HAL_RCC_GetHCLKFreq+0x34>)
 8002990:	681b      	ldr	r3, [r3, #0]
 8002992:	4618      	mov	r0, r3
 8002994:	bd80      	pop	{r7, pc}
 8002996:	bf00      	nop
 8002998:	44020c00 	.word	0x44020c00
 800299c:	08003554 	.word	0x08003554
 80029a0:	20000000 	.word	0x20000000

080029a4 <HAL_RCC_GetPCLK1Freq>:
 80029a4:	b580      	push	{r7, lr}
 80029a6:	af00      	add	r7, sp, #0
 80029a8:	f7ff ffe0 	bl	800296c <HAL_RCC_GetHCLKFreq>
 80029ac:	4602      	mov	r2, r0
 80029ae:	4b06      	ldr	r3, [pc, #24]	@ (80029c8 <HAL_RCC_GetPCLK1Freq+0x24>)
 80029b0:	6a1b      	ldr	r3, [r3, #32]
 80029b2:	091b      	lsrs	r3, r3, #4
 80029b4:	f003 0307 	and.w	r3, r3, #7
 80029b8:	4904      	ldr	r1, [pc, #16]	@ (80029cc <HAL_RCC_GetPCLK1Freq+0x28>)
 80029ba:	5ccb      	ldrb	r3, [r1, r3]
 80029bc:	f003 031f 	and.w	r3, r3, #31
 80029c0:	fa22 f303 	lsr.w	r3, r2, r3
 80029c4:	4618      	mov	r0, r3
 80029c6:	bd80      	pop	{r7, pc}
 80029c8:	44020c00 	.word	0x44020c00
 80029cc:	08003564 	.word	0x08003564

080029d0 <HAL_RCC_GetPCLK2Freq>:
 80029d0:	b580      	push	{r7, lr}
 80029d2:	af00      	add	r7, sp, #0
 80029d4:	f7ff ffca 	bl	800296c <HAL_RCC_GetHCLKFreq>
 80029d8:	4602      	mov	r2, r0
 80029da:	4b06      	ldr	r3, [pc, #24]	@ (80029f4 <HAL_RCC_GetPCLK2Freq+0x24>)
 80029dc:	6a1b      	ldr	r3, [r3, #32]
 80029de:	0a1b      	lsrs	r3, r3, #8
 80029e0:	f003 0307 	and.w	r3, r3, #7
 80029e4:	4904      	ldr	r1, [pc, #16]	@ (80029f8 <HAL_RCC_GetPCLK2Freq+0x28>)
 80029e6:	5ccb      	ldrb	r3, [r1, r3]
 80029e8:	f003 031f 	and.w	r3, r3, #31
 80029ec:	fa22 f303 	lsr.w	r3, r2, r3
 80029f0:	4618      	mov	r0, r3
 80029f2:	bd80      	pop	{r7, pc}
 80029f4:	44020c00 	.word	0x44020c00
 80029f8:	08003564 	.word	0x08003564

080029fc <HAL_RCC_GetPCLK3Freq>:
 80029fc:	b580      	push	{r7, lr}
 80029fe:	af00      	add	r7, sp, #0
 8002a00:	f7ff ffb4 	bl	800296c <HAL_RCC_GetHCLKFreq>
 8002a04:	4602      	mov	r2, r0
 8002a06:	4b06      	ldr	r3, [pc, #24]	@ (8002a20 <HAL_RCC_GetPCLK3Freq+0x24>)
 8002a08:	6a1b      	ldr	r3, [r3, #32]
 8002a0a:	0b1b      	lsrs	r3, r3, #12
 8002a0c:	f003 0307 	and.w	r3, r3, #7
 8002a10:	4904      	ldr	r1, [pc, #16]	@ (8002a24 <HAL_RCC_GetPCLK3Freq+0x28>)
 8002a12:	5ccb      	ldrb	r3, [r1, r3]
 8002a14:	f003 031f 	and.w	r3, r3, #31
 8002a18:	fa22 f303 	lsr.w	r3, r2, r3
 8002a1c:	4618      	mov	r0, r3
 8002a1e:	bd80      	pop	{r7, pc}
 8002a20:	44020c00 	.word	0x44020c00
 8002a24:	08003564 	.word	0x08003564

08002a28 <HAL_RCC_GetOscConfig>:
 8002a28:	b480      	push	{r7}
 8002a2a:	b087      	sub	sp, #28
 8002a2c:	af00      	add	r7, sp, #0
 8002a2e:	6078      	str	r0, [r7, #4]
 8002a30:	687b      	ldr	r3, [r7, #4]
 8002a32:	223f      	movs	r2, #63	@ 0x3f
 8002a34:	601a      	str	r2, [r3, #0]
 8002a36:	4b42      	ldr	r3, [pc, #264]	@ (8002b40 <HAL_RCC_GetOscConfig+0x118>)
 8002a38:	681b      	ldr	r3, [r3, #0]
 8002a3a:	617b      	str	r3, [r7, #20]
 8002a3c:	697b      	ldr	r3, [r7, #20]
 8002a3e:	f403 12a8 	and.w	r2, r3, #1376256	@ 0x150000
 8002a42:	687b      	ldr	r3, [r7, #4]
 8002a44:	605a      	str	r2, [r3, #4]
 8002a46:	697b      	ldr	r3, [r7, #20]
 8002a48:	f403 7280 	and.w	r2, r3, #256	@ 0x100
 8002a4c:	687b      	ldr	r3, [r7, #4]
 8002a4e:	61da      	str	r2, [r3, #28]
 8002a50:	697b      	ldr	r3, [r7, #20]
 8002a52:	f003 0201 	and.w	r2, r3, #1
 8002a56:	687b      	ldr	r3, [r7, #4]
 8002a58:	60da      	str	r2, [r3, #12]
 8002a5a:	697b      	ldr	r3, [r7, #20]
 8002a5c:	f003 0218 	and.w	r2, r3, #24
 8002a60:	687b      	ldr	r3, [r7, #4]
 8002a62:	611a      	str	r2, [r3, #16]
 8002a64:	4b36      	ldr	r3, [pc, #216]	@ (8002b40 <HAL_RCC_GetOscConfig+0x118>)
 8002a66:	691b      	ldr	r3, [r3, #16]
 8002a68:	0c1b      	lsrs	r3, r3, #16
 8002a6a:	f003 027f 	and.w	r2, r3, #127	@ 0x7f
 8002a6e:	687b      	ldr	r3, [r7, #4]
 8002a70:	615a      	str	r2, [r3, #20]
 8002a72:	4b33      	ldr	r3, [pc, #204]	@ (8002b40 <HAL_RCC_GetOscConfig+0x118>)
 8002a74:	f8d3 30f0 	ldr.w	r3, [r3, #240]	@ 0xf0
 8002a78:	617b      	str	r3, [r7, #20]
 8002a7a:	697b      	ldr	r3, [r7, #20]
 8002a7c:	f003 0285 	and.w	r2, r3, #133	@ 0x85
 8002a80:	687b      	ldr	r3, [r7, #4]
 8002a82:	609a      	str	r2, [r3, #8]
 8002a84:	697b      	ldr	r3, [r7, #20]
 8002a86:	f003 6280 	and.w	r2, r3, #67108864	@ 0x4000000
 8002a8a:	687b      	ldr	r3, [r7, #4]
 8002a8c:	619a      	str	r2, [r3, #24]
 8002a8e:	4b2c      	ldr	r3, [pc, #176]	@ (8002b40 <HAL_RCC_GetOscConfig+0x118>)
 8002a90:	681b      	ldr	r3, [r3, #0]
 8002a92:	617b      	str	r3, [r7, #20]
 8002a94:	697b      	ldr	r3, [r7, #20]
 8002a96:	f403 5280 	and.w	r2, r3, #4096	@ 0x1000
 8002a9a:	687b      	ldr	r3, [r7, #4]
 8002a9c:	625a      	str	r2, [r3, #36]	@ 0x24
 8002a9e:	697b      	ldr	r3, [r7, #20]
 8002aa0:	f003 7380 	and.w	r3, r3, #16777216	@ 0x1000000
 8002aa4:	2b00      	cmp	r3, #0
 8002aa6:	d003      	beq.n	8002ab0 <HAL_RCC_GetOscConfig+0x88>
 8002aa8:	687b      	ldr	r3, [r7, #4]
 8002aaa:	2202      	movs	r2, #2
 8002aac:	629a      	str	r2, [r3, #40]	@ 0x28
 8002aae:	e002      	b.n	8002ab6 <HAL_RCC_GetOscConfig+0x8e>
 8002ab0:	687b      	ldr	r3, [r7, #4]
 8002ab2:	2201      	movs	r2, #1
 8002ab4:	629a      	str	r2, [r3, #40]	@ 0x28
 8002ab6:	4b22      	ldr	r3, [pc, #136]	@ (8002b40 <HAL_RCC_GetOscConfig+0x118>)
 8002ab8:	6a9b      	ldr	r3, [r3, #40]	@ 0x28
 8002aba:	613b      	str	r3, [r7, #16]
 8002abc:	4b20      	ldr	r3, [pc, #128]	@ (8002b40 <HAL_RCC_GetOscConfig+0x118>)
 8002abe:	6b5b      	ldr	r3, [r3, #52]	@ 0x34
 8002ac0:	60fb      	str	r3, [r7, #12]
 8002ac2:	693b      	ldr	r3, [r7, #16]
 8002ac4:	f003 0203 	and.w	r2, r3, #3
 8002ac8:	687b      	ldr	r3, [r7, #4]
 8002aca:	62da      	str	r2, [r3, #44]	@ 0x2c
 8002acc:	693b      	ldr	r3, [r7, #16]
 8002ace:	0a1b      	lsrs	r3, r3, #8
 8002ad0:	f003 023f 	and.w	r2, r3, #63	@ 0x3f
 8002ad4:	687b      	ldr	r3, [r7, #4]
 8002ad6:	631a      	str	r2, [r3, #48]	@ 0x30
 8002ad8:	68fb      	ldr	r3, [r7, #12]
 8002ada:	f3c3 0308 	ubfx	r3, r3, #0, #9
 8002ade:	1c5a      	adds	r2, r3, #1
 8002ae0:	687b      	ldr	r3, [r7, #4]
 8002ae2:	635a      	str	r2, [r3, #52]	@ 0x34
 8002ae4:	68fb      	ldr	r3, [r7, #12]
 8002ae6:	0c1b      	lsrs	r3, r3, #16
 8002ae8:	f003 037f 	and.w	r3, r3, #127	@ 0x7f
 8002aec:	1c5a      	adds	r2, r3, #1
 8002aee:	687b      	ldr	r3, [r7, #4]
 8002af0:	63da      	str	r2, [r3, #60]	@ 0x3c
 8002af2:	68fb      	ldr	r3, [r7, #12]
 8002af4:	0e1b      	lsrs	r3, r3, #24
 8002af6:	f003 037f 	and.w	r3, r3, #127	@ 0x7f
 8002afa:	1c5a      	adds	r2, r3, #1
 8002afc:	687b      	ldr	r3, [r7, #4]
 8002afe:	641a      	str	r2, [r3, #64]	@ 0x40
 8002b00:	68fb      	ldr	r3, [r7, #12]
 8002b02:	0a5b      	lsrs	r3, r3, #9
 8002b04:	f003 037f 	and.w	r3, r3, #127	@ 0x7f
 8002b08:	1c5a      	adds	r2, r3, #1
 8002b0a:	687b      	ldr	r3, [r7, #4]
 8002b0c:	639a      	str	r2, [r3, #56]	@ 0x38
 8002b0e:	693b      	ldr	r3, [r7, #16]
 8002b10:	f003 020c 	and.w	r2, r3, #12
 8002b14:	687b      	ldr	r3, [r7, #4]
 8002b16:	645a      	str	r2, [r3, #68]	@ 0x44
 8002b18:	693b      	ldr	r3, [r7, #16]
 8002b1a:	095b      	lsrs	r3, r3, #5
 8002b1c:	f003 0201 	and.w	r2, r3, #1
 8002b20:	687b      	ldr	r3, [r7, #4]
 8002b22:	649a      	str	r2, [r3, #72]	@ 0x48
 8002b24:	4b06      	ldr	r3, [pc, #24]	@ (8002b40 <HAL_RCC_GetOscConfig+0x118>)
 8002b26:	6b9b      	ldr	r3, [r3, #56]	@ 0x38
 8002b28:	08db      	lsrs	r3, r3, #3
 8002b2a:	f3c3 020c 	ubfx	r2, r3, #0, #13
 8002b2e:	687b      	ldr	r3, [r7, #4]
 8002b30:	64da      	str	r2, [r3, #76]	@ 0x4c
 8002b32:	bf00      	nop
 8002b34:	371c      	adds	r7, #28
 8002b36:	46bd      	mov	sp, r7
 8002b38:	f85d 7b04 	ldr.w	r7, [sp], #4
 8002b3c:	4770      	bx	lr
 8002b3e:	bf00      	nop
 8002b40:	44020c00 	.word	0x44020c00

08002b44 <HAL_RCC_GetClockConfig>:
 8002b44:	b480      	push	{r7}
 8002b46:	b085      	sub	sp, #20
 8002b48:	af00      	add	r7, sp, #0
 8002b4a:	6078      	str	r0, [r7, #4]
 8002b4c:	6039      	str	r1, [r7, #0]
 8002b4e:	687b      	ldr	r3, [r7, #4]
 8002b50:	221f      	movs	r2, #31
 8002b52:	601a      	str	r2, [r3, #0]
 8002b54:	4b15      	ldr	r3, [pc, #84]	@ (8002bac <HAL_RCC_GetClockConfig+0x68>)
 8002b56:	69db      	ldr	r3, [r3, #28]
 8002b58:	f003 0203 	and.w	r2, r3, #3
 8002b5c:	687b      	ldr	r3, [r7, #4]
 8002b5e:	605a      	str	r2, [r3, #4]
 8002b60:	4b12      	ldr	r3, [pc, #72]	@ (8002bac <HAL_RCC_GetClockConfig+0x68>)
 8002b62:	6a1b      	ldr	r3, [r3, #32]
 8002b64:	60fb      	str	r3, [r7, #12]
 8002b66:	68fb      	ldr	r3, [r7, #12]
 8002b68:	f003 020f 	and.w	r2, r3, #15
 8002b6c:	687b      	ldr	r3, [r7, #4]
 8002b6e:	609a      	str	r2, [r3, #8]
 8002b70:	68fb      	ldr	r3, [r7, #12]
 8002b72:	f003 0270 	and.w	r2, r3, #112	@ 0x70
 8002b76:	687b      	ldr	r3, [r7, #4]
 8002b78:	60da      	str	r2, [r3, #12]
 8002b7a:	68fb      	ldr	r3, [r7, #12]
 8002b7c:	091b      	lsrs	r3, r3, #4
 8002b7e:	f003 0270 	and.w	r2, r3, #112	@ 0x70
 8002b82:	687b      	ldr	r3, [r7, #4]
 8002b84:	611a      	str	r2, [r3, #16]
 8002b86:	68fb      	ldr	r3, [r7, #12]
 8002b88:	0a1b      	lsrs	r3, r3, #8
 8002b8a:	f003 0270 	and.w	r2, r3, #112	@ 0x70
 8002b8e:	687b      	ldr	r3, [r7, #4]
 8002b90:	615a      	str	r2, [r3, #20]
 8002b92:	4b07      	ldr	r3, [pc, #28]	@ (8002bb0 <HAL_RCC_GetClockConfig+0x6c>)
 8002b94:	681b      	ldr	r3, [r3, #0]
 8002b96:	f003 020f 	and.w	r2, r3, #15
 8002b9a:	683b      	ldr	r3, [r7, #0]
 8002b9c:	601a      	str	r2, [r3, #0]
 8002b9e:	bf00      	nop
 8002ba0:	3714      	adds	r7, #20
 8002ba2:	46bd      	mov	sp, r7
 8002ba4:	f85d 7b04 	ldr.w	r7, [sp], #4
 8002ba8:	4770      	bx	lr
 8002baa:	bf00      	nop
 8002bac:	44020c00 	.word	0x44020c00
 8002bb0:	40022000 	.word	0x40022000

08002bb4 <HAL_RCC_GetResetSource>:
 8002bb4:	b480      	push	{r7}
 8002bb6:	b083      	sub	sp, #12
 8002bb8:	af00      	add	r7, sp, #0
 8002bba:	4b0a      	ldr	r3, [pc, #40]	@ (8002be4 <HAL_RCC_GetResetSource+0x30>)
 8002bbc:	f8d3 30f4 	ldr.w	r3, [r3, #244]	@ 0xf4
 8002bc0:	f003 437c 	and.w	r3, r3, #4227858432	@ 0xfc000000
 8002bc4:	607b      	str	r3, [r7, #4]
 8002bc6:	4b07      	ldr	r3, [pc, #28]	@ (8002be4 <HAL_RCC_GetResetSource+0x30>)
 8002bc8:	f8d3 30f4 	ldr.w	r3, [r3, #244]	@ 0xf4
 8002bcc:	4a05      	ldr	r2, [pc, #20]	@ (8002be4 <HAL_RCC_GetResetSource+0x30>)
 8002bce:	f443 0300 	orr.w	r3, r3, #8388608	@ 0x800000
 8002bd2:	f8c2 30f4 	str.w	r3, [r2, #244]	@ 0xf4
 8002bd6:	687b      	ldr	r3, [r7, #4]
 8002bd8:	4618      	mov	r0, r3
 8002bda:	370c      	adds	r7, #12
 8002bdc:	46bd      	mov	sp, r7
 8002bde:	f85d 7b04 	ldr.w	r7, [sp], #4
 8002be2:	4770      	bx	lr
 8002be4:	44020c00 	.word	0x44020c00

08002be8 <HAL_RCC_EnableCSS>:
 8002be8:	b480      	push	{r7}
 8002bea:	af00      	add	r7, sp, #0
 8002bec:	4b05      	ldr	r3, [pc, #20]	@ (8002c04 <HAL_RCC_EnableCSS+0x1c>)
 8002bee:	681b      	ldr	r3, [r3, #0]
 8002bf0:	4a04      	ldr	r2, [pc, #16]	@ (8002c04 <HAL_RCC_EnableCSS+0x1c>)
 8002bf2:	f443 2300 	orr.w	r3, r3, #524288	@ 0x80000
 8002bf6:	6013      	str	r3, [r2, #0]
 8002bf8:	bf00      	nop
 8002bfa:	46bd      	mov	sp, r7
 8002bfc:	f85d 7b04 	ldr.w	r7, [sp], #4
 8002c00:	4770      	bx	lr
 8002c02:	bf00      	nop
 8002c04:	44020c00 	.word	0x44020c00

08002c08 <HAL_RCC_NMI_IRQHandler>:
 8002c08:	b580      	push	{r7, lr}
 8002c0a:	af00      	add	r7, sp, #0
 8002c0c:	4b07      	ldr	r3, [pc, #28]	@ (8002c2c <HAL_RCC_NMI_IRQHandler+0x24>)
 8002c0e:	6d5b      	ldr	r3, [r3, #84]	@ 0x54
 8002c10:	f403 6380 	and.w	r3, r3, #1024	@ 0x400
 8002c14:	f5b3 6f80 	cmp.w	r3, #1024	@ 0x400
 8002c18:	d105      	bne.n	8002c26 <HAL_RCC_NMI_IRQHandler+0x1e>
 8002c1a:	4b04      	ldr	r3, [pc, #16]	@ (8002c2c <HAL_RCC_NMI_IRQHandler+0x24>)
 8002c1c:	f44f 6280 	mov.w	r2, #1024	@ 0x400
 8002c20:	659a      	str	r2, [r3, #88]	@ 0x58
 8002c22:	f000 f805 	bl	8002c30 <HAL_RCC_CSSCallback>
 8002c26:	bf00      	nop
 8002c28:	bd80      	pop	{r7, pc}
 8002c2a:	bf00      	nop
 8002c2c:	44020c00 	.word	0x44020c00

08002c30 <HAL_RCC_CSSCallback>:
 8002c30:	b480      	push	{r7}
 8002c32:	af00      	add	r7, sp, #0
 8002c34:	bf00      	nop
 8002c36:	46bd      	mov	sp, r7
 8002c38:	f85d 7b04 	ldr.w	r7, [sp], #4
 8002c3c:	4770      	bx	lr

08002c3e <HAL_RCC_ConfigAttributes>:
 8002c3e:	b480      	push	{r7}
 8002c40:	b083      	sub	sp, #12
 8002c42:	af00      	add	r7, sp, #0
 8002c44:	6078      	str	r0, [r7, #4]
 8002c46:	6039      	str	r1, [r7, #0]
 8002c48:	683b      	ldr	r3, [r7, #0]
 8002c4a:	2b01      	cmp	r3, #1
 8002c4c:	d003      	beq.n	8002c56 <HAL_RCC_ConfigAttributes+0x18>
 8002c4e:	683b      	ldr	r3, [r7, #0]
 8002c50:	2b02      	cmp	r3, #2
 8002c52:	d009      	beq.n	8002c68 <HAL_RCC_ConfigAttributes+0x2a>
 8002c54:	e011      	b.n	8002c7a <HAL_RCC_ConfigAttributes+0x3c>
 8002c56:	4b0c      	ldr	r3, [pc, #48]	@ (8002c88 <HAL_RCC_ConfigAttributes+0x4a>)
 8002c58:	f8d3 3114 	ldr.w	r3, [r3, #276]	@ 0x114
 8002c5c:	4a0a      	ldr	r2, [pc, #40]	@ (8002c88 <HAL_RCC_ConfigAttributes+0x4a>)
 8002c5e:	f043 0302 	orr.w	r3, r3, #2
 8002c62:	f8c2 3114 	str.w	r3, [r2, #276]	@ 0x114
 8002c66:	e008      	b.n	8002c7a <HAL_RCC_ConfigAttributes+0x3c>
 8002c68:	4b07      	ldr	r3, [pc, #28]	@ (8002c88 <HAL_RCC_ConfigAttributes+0x4a>)
 8002c6a:	f8d3 3114 	ldr.w	r3, [r3, #276]	@ 0x114
 8002c6e:	4a06      	ldr	r2, [pc, #24]	@ (8002c88 <HAL_RCC_ConfigAttributes+0x4a>)
 8002c70:	f023 0302 	bic.w	r3, r3, #2
 8002c74:	f8c2 3114 	str.w	r3, [r2, #276]	@ 0x114
 8002c78:	bf00      	nop
 8002c7a:	bf00      	nop
 8002c7c:	370c      	adds	r7, #12
 8002c7e:	46bd      	mov	sp, r7
 8002c80:	f85d 7b04 	ldr.w	r7, [sp], #4
 8002c84:	4770      	bx	lr
 8002c86:	bf00      	nop
 8002c88:	44020c00 	.word	0x44020c00

08002c8c <HAL_RCC_GetConfigAttributes>:
 8002c8c:	b480      	push	{r7}
 8002c8e:	b085      	sub	sp, #20
 8002c90:	af00      	add	r7, sp, #0
 8002c92:	6078      	str	r0, [r7, #4]
 8002c94:	6039      	str	r1, [r7, #0]
 8002c96:	683b      	ldr	r3, [r7, #0]
 8002c98:	2b00      	cmp	r3, #0
 8002c9a:	d101      	bne.n	8002ca0 <HAL_RCC_GetConfigAttributes+0x14>
 8002c9c:	2301      	movs	r3, #1
 8002c9e:	e00e      	b.n	8002cbe <HAL_RCC_GetConfigAttributes+0x32>
 8002ca0:	4b0a      	ldr	r3, [pc, #40]	@ (8002ccc <HAL_RCC_GetConfigAttributes+0x40>)
 8002ca2:	f8d3 3114 	ldr.w	r3, [r3, #276]	@ 0x114
 8002ca6:	f003 0302 	and.w	r3, r3, #2
 8002caa:	2b00      	cmp	r3, #0
 8002cac:	d101      	bne.n	8002cb2 <HAL_RCC_GetConfigAttributes+0x26>
 8002cae:	2302      	movs	r3, #2
 8002cb0:	e000      	b.n	8002cb4 <HAL_RCC_GetConfigAttributes+0x28>
 8002cb2:	2301      	movs	r3, #1
 8002cb4:	60fb      	str	r3, [r7, #12]
 8002cb6:	683b      	ldr	r3, [r7, #0]
 8002cb8:	68fa      	ldr	r2, [r7, #12]
 8002cba:	601a      	str	r2, [r3, #0]
 8002cbc:	2300      	movs	r3, #0
 8002cbe:	4618      	mov	r0, r3
 8002cc0:	3714      	adds	r7, #20
 8002cc2:	46bd      	mov	sp, r7
 8002cc4:	f85d 7b04 	ldr.w	r7, [sp], #4
 8002cc8:	4770      	bx	lr
 8002cca:	bf00      	nop
 8002ccc:	44020c00 	.word	0x44020c00

08002cd0 <__NVIC_SetPriorityGrouping>:
 8002cd0:	b480      	push	{r7}
 8002cd2:	b085      	sub	sp, #20
 8002cd4:	af00      	add	r7, sp, #0
 8002cd6:	6078      	str	r0, [r7, #4]
 8002cd8:	687b      	ldr	r3, [r7, #4]
 8002cda:	f003 0307 	and.w	r3, r3, #7
 8002cde:	60fb      	str	r3, [r7, #12]
 8002ce0:	4b0c      	ldr	r3, [pc, #48]	@ (8002d14 <__NVIC_SetPriorityGrouping+0x44>)
 8002ce2:	68db      	ldr	r3, [r3, #12]
 8002ce4:	60bb      	str	r3, [r7, #8]
 8002ce6:	68ba      	ldr	r2, [r7, #8]
 8002ce8:	f64f 03ff 	movw	r3, #63743	@ 0xf8ff
 8002cec:	4013      	ands	r3, r2
 8002cee:	60bb      	str	r3, [r7, #8]
 8002cf0:	68fb      	ldr	r3, [r7, #12]
 8002cf2:	021a      	lsls	r2, r3, #8
 8002cf4:	68bb      	ldr	r3, [r7, #8]
 8002cf6:	4313      	orrs	r3, r2
 8002cf8:	f043 63bf 	orr.w	r3, r3, #100139008	@ 0x5f80000
 8002cfc:	f443 3300 	orr.w	r3, r3, #131072	@ 0x20000
 8002d00:	60bb      	str	r3, [r7, #8]
 8002d02:	4a04      	ldr	r2, [pc, #16]	@ (8002d14 <__NVIC_SetPriorityGrouping+0x44>)
 8002d04:	68bb      	ldr	r3, [r7, #8]
 8002d06:	60d3      	str	r3, [r2, #12]
 8002d08:	bf00      	nop
 8002d0a:	3714      	adds	r7, #20
 8002d0c:	46bd      	mov	sp, r7
 8002d0e:	f85d 7b04 	ldr.w	r7, [sp], #4
 8002d12:	4770      	bx	lr
 8002d14:	e000ed00 	.word	0xe000ed00

08002d18 <__NVIC_GetPriorityGrouping>:
 8002d18:	b480      	push	{r7}
 8002d1a:	af00      	add	r7, sp, #0
 8002d1c:	4b04      	ldr	r3, [pc, #16]	@ (8002d30 <__NVIC_GetPriorityGrouping+0x18>)
 8002d1e:	68db      	ldr	r3, [r3, #12]
 8002d20:	0a1b      	lsrs	r3, r3, #8
 8002d22:	f003 0307 	and.w	r3, r3, #7
 8002d26:	4618      	mov	r0, r3
 8002d28:	46bd      	mov	sp, r7
 8002d2a:	f85d 7b04 	ldr.w	r7, [sp], #4
 8002d2e:	4770      	bx	lr
 8002d30:	e000ed00 	.word	0xe000ed00

08002d34 <__NVIC_EnableIRQ>:
 8002d34:	b480      	push	{r7}
 8002d36:	b083      	sub	sp, #12
 8002d38:	af00      	add	r7, sp, #0
 8002d3a:	4603      	mov	r3, r0
 8002d3c:	80fb      	strh	r3, [r7, #6]
 8002d3e:	f9b7 3006 	ldrsh.w	r3, [r7, #6]
 8002d42:	2b00      	cmp	r3, #0
 8002d44:	db0b      	blt.n	8002d5e <__NVIC_EnableIRQ+0x2a>
 8002d46:	88fb      	ldrh	r3, [r7, #6]
 8002d48:	f003 021f 	and.w	r2, r3, #31
 8002d4c:	4907      	ldr	r1, [pc, #28]	@ (8002d6c <__NVIC_EnableIRQ+0x38>)
 8002d4e:	f9b7 3006 	ldrsh.w	r3, [r7, #6]
 8002d52:	095b      	lsrs	r3, r3, #5
 8002d54:	2001      	movs	r0, #1
 8002d56:	fa00 f202 	lsl.w	r2, r0, r2
 8002d5a:	f841 2023 	str.w	r2, [r1, r3, lsl #2]
 8002d5e:	bf00      	nop
 8002d60:	370c      	adds	r7, #12
 8002d62:	46bd      	mov	sp, r7
 8002d64:	f85d 7b04 	ldr.w	r7, [sp], #4
 8002d68:	4770      	bx	lr
 8002d6a:	bf00      	nop
 8002d6c:	e000e100 	.word	0xe000e100

08002d70 <__NVIC_DisableIRQ>:
 8002d70:	b480      	push	{r7}
 8002d72:	b083      	sub	sp, #12
 8002d74:	af00      	add	r7, sp, #0
 8002d76:	4603      	mov	r3, r0
 8002d78:	80fb      	strh	r3, [r7, #6]
 8002d7a:	f9b7 3006 	ldrsh.w	r3, [r7, #6]
 8002d7e:	2b00      	cmp	r3, #0
 8002d80:	db12      	blt.n	8002da8 <__NVIC_DisableIRQ+0x38>
 8002d82:	88fb      	ldrh	r3, [r7, #6]
 8002d84:	f003 021f 	and.w	r2, r3, #31
 8002d88:	490a      	ldr	r1, [pc, #40]	@ (8002db4 <__NVIC_DisableIRQ+0x44>)
 8002d8a:	f9b7 3006 	ldrsh.w	r3, [r7, #6]
 8002d8e:	095b      	lsrs	r3, r3, #5
 8002d90:	2001      	movs	r0, #1
 8002d92:	fa00 f202 	lsl.w	r2, r0, r2
 8002d96:	3320      	adds	r3, #32
 8002d98:	f841 2023 	str.w	r2, [r1, r3, lsl #2]
 8002d9c:	f3bf 8f4f 	dsb	sy
 8002da0:	bf00      	nop
 8002da2:	f3bf 8f6f 	isb	sy
 8002da6:	bf00      	nop
 8002da8:	bf00      	nop
 8002daa:	370c      	adds	r7, #12
 8002dac:	46bd      	mov	sp, r7
 8002dae:	f85d 7b04 	ldr.w	r7, [sp], #4
 8002db2:	4770      	bx	lr
 8002db4:	e000e100 	.word	0xe000e100

08002db8 <__NVIC_GetPendingIRQ>:
 8002db8:	b480      	push	{r7}
 8002dba:	b083      	sub	sp, #12
 8002dbc:	af00      	add	r7, sp, #0
 8002dbe:	4603      	mov	r3, r0
 8002dc0:	80fb      	strh	r3, [r7, #6]
 8002dc2:	f9b7 3006 	ldrsh.w	r3, [r7, #6]
 8002dc6:	2b00      	cmp	r3, #0
 8002dc8:	db0e      	blt.n	8002de8 <__NVIC_GetPendingIRQ+0x30>
 8002dca:	4a0b      	ldr	r2, [pc, #44]	@ (8002df8 <__NVIC_GetPendingIRQ+0x40>)
 8002dcc:	f9b7 3006 	ldrsh.w	r3, [r7, #6]
 8002dd0:	095b      	lsrs	r3, r3, #5
 8002dd2:	3340      	adds	r3, #64	@ 0x40
 8002dd4:	f852 2023 	ldr.w	r2, [r2, r3, lsl #2]
 8002dd8:	88fb      	ldrh	r3, [r7, #6]
 8002dda:	f003 031f 	and.w	r3, r3, #31
 8002dde:	fa22 f303 	lsr.w	r3, r2, r3
 8002de2:	f003 0301 	and.w	r3, r3, #1
 8002de6:	e000      	b.n	8002dea <__NVIC_GetPendingIRQ+0x32>
 8002de8:	2300      	movs	r3, #0
 8002dea:	4618      	mov	r0, r3
 8002dec:	370c      	adds	r7, #12
 8002dee:	46bd      	mov	sp, r7
 8002df0:	f85d 7b04 	ldr.w	r7, [sp], #4
 8002df4:	4770      	bx	lr
 8002df6:	bf00      	nop
 8002df8:	e000e100 	.word	0xe000e100

08002dfc <__NVIC_SetPendingIRQ>:
 8002dfc:	b480      	push	{r7}
 8002dfe:	b083      	sub	sp, #12
 8002e00:	af00      	add	r7, sp, #0
 8002e02:	4603      	mov	r3, r0
 8002e04:	80fb      	strh	r3, [r7, #6]
 8002e06:	f9b7 3006 	ldrsh.w	r3, [r7, #6]
 8002e0a:	2b00      	cmp	r3, #0
 8002e0c:	db0c      	blt.n	8002e28 <__NVIC_SetPendingIRQ+0x2c>
 8002e0e:	88fb      	ldrh	r3, [r7, #6]
 8002e10:	f003 021f 	and.w	r2, r3, #31
 8002e14:	4907      	ldr	r1, [pc, #28]	@ (8002e34 <__NVIC_SetPendingIRQ+0x38>)
 8002e16:	f9b7 3006 	ldrsh.w	r3, [r7, #6]
 8002e1a:	095b      	lsrs	r3, r3, #5
 8002e1c:	2001      	movs	r0, #1
 8002e1e:	fa00 f202 	lsl.w	r2, r0, r2
 8002e22:	3340      	adds	r3, #64	@ 0x40
 8002e24:	f841 2023 	str.w	r2, [r1, r3, lsl #2]
 8002e28:	bf00      	nop
 8002e2a:	370c      	adds	r7, #12
 8002e2c:	46bd      	mov	sp, r7
 8002e2e:	f85d 7b04 	ldr.w	r7, [sp], #4
 8002e32:	4770      	bx	lr
 8002e34:	e000e100 	.word	0xe000e100

08002e38 <__NVIC_ClearPendingIRQ>:
 8002e38:	b480      	push	{r7}
 8002e3a:	b083      	sub	sp, #12
 8002e3c:	af00      	add	r7, sp, #0
 8002e3e:	4603      	mov	r3, r0
 8002e40:	80fb      	strh	r3, [r7, #6]
 8002e42:	f9b7 3006 	ldrsh.w	r3, [r7, #6]
 8002e46:	2b00      	cmp	r3, #0
 8002e48:	db0c      	blt.n	8002e64 <__NVIC_ClearPendingIRQ+0x2c>
 8002e4a:	88fb      	ldrh	r3, [r7, #6]
 8002e4c:	f003 021f 	and.w	r2, r3, #31
 8002e50:	4907      	ldr	r1, [pc, #28]	@ (8002e70 <__NVIC_ClearPendingIRQ+0x38>)
 8002e52:	f9b7 3006 	ldrsh.w	r3, [r7, #6]
 8002e56:	095b      	lsrs	r3, r3, #5
 8002e58:	2001      	movs	r0, #1
 8002e5a:	fa00 f202 	lsl.w	r2, r0, r2
 8002e5e:	3360      	adds	r3, #96	@ 0x60
 8002e60:	f841 2023 	str.w	r2, [r1, r3, lsl #2]
 8002e64:	bf00      	nop
 8002e66:	370c      	adds	r7, #12
 8002e68:	46bd      	mov	sp, r7
 8002e6a:	f85d 7b04 	ldr.w	r7, [sp], #4
 8002e6e:	4770      	bx	lr
 8002e70:	e000e100 	.word	0xe000e100

08002e74 <__NVIC_GetActive>:
 8002e74:	b480      	push	{r7}
 8002e76:	b083      	sub	sp, #12
 8002e78:	af00      	add	r7, sp, #0
 8002e7a:	4603      	mov	r3, r0
 8002e7c:	80fb      	strh	r3, [r7, #6]
 8002e7e:	f9b7 3006 	ldrsh.w	r3, [r7, #6]
 8002e82:	2b00      	cmp	r3, #0
 8002e84:	db0e      	blt.n	8002ea4 <__NVIC_GetActive+0x30>
 8002e86:	4a0b      	ldr	r2, [pc, #44]	@ (8002eb4 <__NVIC_GetActive+0x40>)
 8002e88:	f9b7 3006 	ldrsh.w	r3, [r7, #6]
 8002e8c:	095b      	lsrs	r3, r3, #5
 8002e8e:	3380      	adds	r3, #128	@ 0x80
 8002e90:	f852 2023 	ldr.w	r2, [r2, r3, lsl #2]
 8002e94:	88fb      	ldrh	r3, [r7, #6]
 8002e96:	f003 031f 	and.w	r3, r3, #31
 8002e9a:	fa22 f303 	lsr.w	r3, r2, r3
 8002e9e:	f003 0301 	and.w	r3, r3, #1
 8002ea2:	e000      	b.n	8002ea6 <__NVIC_GetActive+0x32>
 8002ea4:	2300      	movs	r3, #0
 8002ea6:	4618      	mov	r0, r3
 8002ea8:	370c      	adds	r7, #12
 8002eaa:	46bd      	mov	sp, r7
 8002eac:	f85d 7b04 	ldr.w	r7, [sp], #4
 8002eb0:	4770      	bx	lr
 8002eb2:	bf00      	nop
 8002eb4:	e000e100 	.word	0xe000e100

08002eb8 <__NVIC_SetPriority>:
 8002eb8:	b480      	push	{r7}
 8002eba:	b083      	sub	sp, #12
 8002ebc:	af00      	add	r7, sp, #0
 8002ebe:	4603      	mov	r3, r0
 8002ec0:	6039      	str	r1, [r7, #0]
 8002ec2:	80fb      	strh	r3, [r7, #6]
 8002ec4:	f9b7 3006 	ldrsh.w	r3, [r7, #6]
 8002ec8:	2b00      	cmp	r3, #0
 8002eca:	db0a      	blt.n	8002ee2 <__NVIC_SetPriority+0x2a>
 8002ecc:	683b      	ldr	r3, [r7, #0]
 8002ece:	b2da      	uxtb	r2, r3
 8002ed0:	490c      	ldr	r1, [pc, #48]	@ (8002f04 <__NVIC_SetPriority+0x4c>)
 8002ed2:	f9b7 3006 	ldrsh.w	r3, [r7, #6]
 8002ed6:	0112      	lsls	r2, r2, #4
 8002ed8:	b2d2      	uxtb	r2, r2
 8002eda:	440b      	add	r3, r1
 8002edc:	f883 2300 	strb.w	r2, [r3, #768]	@ 0x300
 8002ee0:	e00a      	b.n	8002ef8 <__NVIC_SetPriority+0x40>
 8002ee2:	683b      	ldr	r3, [r7, #0]
 8002ee4:	b2da      	uxtb	r2, r3
 8002ee6:	4908      	ldr	r1, [pc, #32]	@ (8002f08 <__NVIC_SetPriority+0x50>)
 8002ee8:	88fb      	ldrh	r3, [r7, #6]
 8002eea:	f003 030f 	and.w	r3, r3, #15
 8002eee:	3b04      	subs	r3, #4
 8002ef0:	0112      	lsls	r2, r2, #4
 8002ef2:	b2d2      	uxtb	r2, r2
 8002ef4:	440b      	add	r3, r1
 8002ef6:	761a      	strb	r2, [r3, #24]
 8002ef8:	bf00      	nop
 8002efa:	370c      	adds	r7, #12
 8002efc:	46bd      	mov	sp, r7
 8002efe:	f85d 7b04 	ldr.w	r7, [sp], #4
 8002f02:	4770      	bx	lr
 8002f04:	e000e100 	.word	0xe000e100
 8002f08:	e000ed00 	.word	0xe000ed00

08002f0c <__NVIC_GetPriority>:
 8002f0c:	b480      	push	{r7}
 8002f0e:	b083      	sub	sp, #12
 8002f10:	af00      	add	r7, sp, #0
 8002f12:	4603      	mov	r3, r0
 8002f14:	80fb      	strh	r3, [r7, #6]
 8002f16:	f9b7 3006 	ldrsh.w	r3, [r7, #6]
 8002f1a:	2b00      	cmp	r3, #0
 8002f1c:	db09      	blt.n	8002f32 <__NVIC_GetPriority+0x26>
 8002f1e:	4a0d      	ldr	r2, [pc, #52]	@ (8002f54 <__NVIC_GetPriority+0x48>)
 8002f20:	f9b7 3006 	ldrsh.w	r3, [r7, #6]
 8002f24:	4413      	add	r3, r2
 8002f26:	f893 3300 	ldrb.w	r3, [r3, #768]	@ 0x300
 8002f2a:	b2db      	uxtb	r3, r3
 8002f2c:	091b      	lsrs	r3, r3, #4
 8002f2e:	b2db      	uxtb	r3, r3
 8002f30:	e009      	b.n	8002f46 <__NVIC_GetPriority+0x3a>
 8002f32:	4a09      	ldr	r2, [pc, #36]	@ (8002f58 <__NVIC_GetPriority+0x4c>)
 8002f34:	88fb      	ldrh	r3, [r7, #6]
 8002f36:	f003 030f 	and.w	r3, r3, #15
 8002f3a:	3b04      	subs	r3, #4
 8002f3c:	4413      	add	r3, r2
 8002f3e:	7e1b      	ldrb	r3, [r3, #24]
 8002f40:	b2db      	uxtb	r3, r3
 8002f42:	091b      	lsrs	r3, r3, #4
 8002f44:	b2db      	uxtb	r3, r3
 8002f46:	4618      	mov	r0, r3
 8002f48:	370c      	adds	r7, #12
 8002f4a:	46bd      	mov	sp, r7
 8002f4c:	f85d 7b04 	ldr.w	r7, [sp], #4
 8002f50:	4770      	bx	lr
 8002f52:	bf00      	nop
 8002f54:	e000e100 	.word	0xe000e100
 8002f58:	e000ed00 	.word	0xe000ed00

08002f5c <NVIC_EncodePriority>:
 8002f5c:	b480      	push	{r7}
 8002f5e:	b089      	sub	sp, #36	@ 0x24
 8002f60:	af00      	add	r7, sp, #0
 8002f62:	60f8      	str	r0, [r7, #12]
 8002f64:	60b9      	str	r1, [r7, #8]
 8002f66:	607a      	str	r2, [r7, #4]
 8002f68:	68fb      	ldr	r3, [r7, #12]
 8002f6a:	f003 0307 	and.w	r3, r3, #7
 8002f6e:	61fb      	str	r3, [r7, #28]
 8002f70:	69fb      	ldr	r3, [r7, #28]
 8002f72:	f1c3 0307 	rsb	r3, r3, #7
 8002f76:	2b04      	cmp	r3, #4
 8002f78:	bf28      	it	cs
 8002f7a:	2304      	movcs	r3, #4
 8002f7c:	61bb      	str	r3, [r7, #24]
 8002f7e:	69fb      	ldr	r3, [r7, #28]
 8002f80:	3304      	adds	r3, #4
 8002f82:	2b06      	cmp	r3, #6
 8002f84:	d902      	bls.n	8002f8c <NVIC_EncodePriority+0x30>
 8002f86:	69fb      	ldr	r3, [r7, #28]
 8002f88:	3b03      	subs	r3, #3
 8002f8a:	e000      	b.n	8002f8e <NVIC_EncodePriority+0x32>
 8002f8c:	2300      	movs	r3, #0
 8002f8e:	617b      	str	r3, [r7, #20]
 8002f90:	f04f 32ff 	mov.w	r2, #4294967295
 8002f94:	69bb      	ldr	r3, [r7, #24]
 8002f96:	fa02 f303 	lsl.w	r3, r2, r3
 8002f9a:	43da      	mvns	r2, r3
 8002f9c:	68bb      	ldr	r3, [r7, #8]
 8002f9e:	401a      	ands	r2, r3
 8002fa0:	697b      	ldr	r3, [r7, #20]
 8002fa2:	409a      	lsls	r2, r3
 8002fa4:	f04f 31ff 	mov.w	r1, #4294967295
 8002fa8:	697b      	ldr	r3, [r7, #20]
 8002faa:	fa01 f303 	lsl.w	r3, r1, r3
 8002fae:	43d9      	mvns	r1, r3
 8002fb0:	687b      	ldr	r3, [r7, #4]
 8002fb2:	400b      	ands	r3, r1
 8002fb4:	4313      	orrs	r3, r2
 8002fb6:	4618      	mov	r0, r3
 8002fb8:	3724      	adds	r7, #36	@ 0x24
 8002fba:	46bd      	mov	sp, r7
 8002fbc:	f85d 7b04 	ldr.w	r7, [sp], #4
 8002fc0:	4770      	bx	lr

08002fc2 <NVIC_DecodePriority>:
 8002fc2:	b480      	push	{r7}
 8002fc4:	b089      	sub	sp, #36	@ 0x24
 8002fc6:	af00      	add	r7, sp, #0
 8002fc8:	60f8      	str	r0, [r7, #12]
 8002fca:	60b9      	str	r1, [r7, #8]
 8002fcc:	607a      	str	r2, [r7, #4]
 8002fce:	603b      	str	r3, [r7, #0]
 8002fd0:	68bb      	ldr	r3, [r7, #8]
 8002fd2:	f003 0307 	and.w	r3, r3, #7
 8002fd6:	61fb      	str	r3, [r7, #28]
 8002fd8:	69fb      	ldr	r3, [r7, #28]
 8002fda:	f1c3 0307 	rsb	r3, r3, #7
 8002fde:	2b04      	cmp	r3, #4
 8002fe0:	bf28      	it	cs
 8002fe2:	2304      	movcs	r3, #4
 8002fe4:	61bb      	str	r3, [r7, #24]
 8002fe6:	69fb      	ldr	r3, [r7, #28]
 8002fe8:	3304      	adds	r3, #4
 8002fea:	2b06      	cmp	r3, #6
 8002fec:	d902      	bls.n	8002ff4 <NVIC_DecodePriority+0x32>
 8002fee:	69fb      	ldr	r3, [r7, #28]
 8002ff0:	3b03      	subs	r3, #3
 8002ff2:	e000      	b.n	8002ff6 <NVIC_DecodePriority+0x34>
 8002ff4:	2300      	movs	r3, #0
 8002ff6:	617b      	str	r3, [r7, #20]
 8002ff8:	68fa      	ldr	r2, [r7, #12]
 8002ffa:	697b      	ldr	r3, [r7, #20]
 8002ffc:	40da      	lsrs	r2, r3
 8002ffe:	f04f 31ff 	mov.w	r1, #4294967295
 8003002:	69bb      	ldr	r3, [r7, #24]
 8003004:	fa01 f303 	lsl.w	r3, r1, r3
 8003008:	43db      	mvns	r3, r3
 800300a:	401a      	ands	r2, r3
 800300c:	687b      	ldr	r3, [r7, #4]
 800300e:	601a      	str	r2, [r3, #0]
 8003010:	f04f 32ff 	mov.w	r2, #4294967295
 8003014:	697b      	ldr	r3, [r7, #20]
 8003016:	fa02 f303 	lsl.w	r3, r2, r3
 800301a:	43da      	mvns	r2, r3
 800301c:	68fb      	ldr	r3, [r7, #12]
 800301e:	401a      	ands	r2, r3
 8003020:	683b      	ldr	r3, [r7, #0]
 8003022:	601a      	str	r2, [r3, #0]
 8003024:	bf00      	nop
 8003026:	3724      	adds	r7, #36	@ 0x24
 8003028:	46bd      	mov	sp, r7
 800302a:	f85d 7b04 	ldr.w	r7, [sp], #4
 800302e:	4770      	bx	lr

08003030 <__NVIC_SystemReset>:
 8003030:	b480      	push	{r7}
 8003032:	af00      	add	r7, sp, #0
 8003034:	f3bf 8f4f 	dsb	sy
 8003038:	bf00      	nop
 800303a:	4b06      	ldr	r3, [pc, #24]	@ (8003054 <__NVIC_SystemReset+0x24>)
 800303c:	68db      	ldr	r3, [r3, #12]
 800303e:	f403 62e0 	and.w	r2, r3, #1792	@ 0x700
 8003042:	4904      	ldr	r1, [pc, #16]	@ (8003054 <__NVIC_SystemReset+0x24>)
 8003044:	4b04      	ldr	r3, [pc, #16]	@ (8003058 <__NVIC_SystemReset+0x28>)
 8003046:	4313      	orrs	r3, r2
 8003048:	60cb      	str	r3, [r1, #12]
 800304a:	f3bf 8f4f 	dsb	sy
 800304e:	bf00      	nop
 8003050:	bf00      	nop
 8003052:	e7fd      	b.n	8003050 <__NVIC_SystemReset+0x20>
 8003054:	e000ed00 	.word	0xe000ed00
 8003058:	05fa0004 	.word	0x05fa0004

0800305c <HAL_NVIC_SetPriorityGrouping>:
 800305c:	b580      	push	{r7, lr}
 800305e:	b082      	sub	sp, #8
 8003060:	af00      	add	r7, sp, #0
 8003062:	6078      	str	r0, [r7, #4]
 8003064:	6878      	ldr	r0, [r7, #4]
 8003066:	f7ff fe33 	bl	8002cd0 <__NVIC_SetPriorityGrouping>
 800306a:	bf00      	nop
 800306c:	3708      	adds	r7, #8
 800306e:	46bd      	mov	sp, r7
 8003070:	bd80      	pop	{r7, pc}

08003072 <HAL_NVIC_SetPriority>:
 8003072:	b580      	push	{r7, lr}
 8003074:	b086      	sub	sp, #24
 8003076:	af00      	add	r7, sp, #0
 8003078:	4603      	mov	r3, r0
 800307a:	60b9      	str	r1, [r7, #8]
 800307c:	607a      	str	r2, [r7, #4]
 800307e:	81fb      	strh	r3, [r7, #14]
 8003080:	f7ff fe4a 	bl	8002d18 <__NVIC_GetPriorityGrouping>
 8003084:	6178      	str	r0, [r7, #20]
 8003086:	687a      	ldr	r2, [r7, #4]
 8003088:	68b9      	ldr	r1, [r7, #8]
 800308a:	6978      	ldr	r0, [r7, #20]
 800308c:	f7ff ff66 	bl	8002f5c <NVIC_EncodePriority>
 8003090:	4602      	mov	r2, r0
 8003092:	f9b7 300e 	ldrsh.w	r3, [r7, #14]
 8003096:	4611      	mov	r1, r2
 8003098:	4618      	mov	r0, r3
 800309a:	f7ff ff0d 	bl	8002eb8 <__NVIC_SetPriority>
 800309e:	bf00      	nop
 80030a0:	3718      	adds	r7, #24
 80030a2:	46bd      	mov	sp, r7
 80030a4:	bd80      	pop	{r7, pc}

080030a6 <HAL_NVIC_EnableIRQ>:
 80030a6:	b580      	push	{r7, lr}
 80030a8:	b082      	sub	sp, #8
 80030aa:	af00      	add	r7, sp, #0
 80030ac:	4603      	mov	r3, r0
 80030ae:	80fb      	strh	r3, [r7, #6]
 80030b0:	f9b7 3006 	ldrsh.w	r3, [r7, #6]
 80030b4:	4618      	mov	r0, r3
 80030b6:	f7ff fe3d 	bl	8002d34 <__NVIC_EnableIRQ>
 80030ba:	bf00      	nop
 80030bc:	3708      	adds	r7, #8
 80030be:	46bd      	mov	sp, r7
 80030c0:	bd80      	pop	{r7, pc}

080030c2 <HAL_NVIC_DisableIRQ>:
 80030c2:	b580      	push	{r7, lr}
 80030c4:	b082      	sub	sp, #8
 80030c6:	af00      	add	r7, sp, #0
 80030c8:	4603      	mov	r3, r0
 80030ca:	80fb      	strh	r3, [r7, #6]
 80030cc:	f9b7 3006 	ldrsh.w	r3, [r7, #6]
 80030d0:	4618      	mov	r0, r3
 80030d2:	f7ff fe4d 	bl	8002d70 <__NVIC_DisableIRQ>
 80030d6:	bf00      	nop
 80030d8:	3708      	adds	r7, #8
 80030da:	46bd      	mov	sp, r7
 80030dc:	bd80      	pop	{r7, pc}

080030de <HAL_NVIC_SystemReset>:
 80030de:	b580      	push	{r7, lr}
 80030e0:	af00      	add	r7, sp, #0
 80030e2:	f7ff ffa5 	bl	8003030 <__NVIC_SystemReset>

080030e6 <HAL_NVIC_GetPriorityGrouping>:
 80030e6:	b580      	push	{r7, lr}
 80030e8:	af00      	add	r7, sp, #0
 80030ea:	f7ff fe15 	bl	8002d18 <__NVIC_GetPriorityGrouping>
 80030ee:	4603      	mov	r3, r0
 80030f0:	4618      	mov	r0, r3
 80030f2:	bd80      	pop	{r7, pc}

080030f4 <HAL_NVIC_GetPriority>:
 80030f4:	b580      	push	{r7, lr}
 80030f6:	b084      	sub	sp, #16
 80030f8:	af00      	add	r7, sp, #0
 80030fa:	60b9      	str	r1, [r7, #8]
 80030fc:	607a      	str	r2, [r7, #4]
 80030fe:	603b      	str	r3, [r7, #0]
 8003100:	4603      	mov	r3, r0
 8003102:	81fb      	strh	r3, [r7, #14]
 8003104:	f9b7 300e 	ldrsh.w	r3, [r7, #14]
 8003108:	4618      	mov	r0, r3
 800310a:	f7ff feff 	bl	8002f0c <__NVIC_GetPriority>
 800310e:	683b      	ldr	r3, [r7, #0]
 8003110:	687a      	ldr	r2, [r7, #4]
 8003112:	68b9      	ldr	r1, [r7, #8]
 8003114:	f7ff ff55 	bl	8002fc2 <NVIC_DecodePriority>
 8003118:	bf00      	nop
 800311a:	3710      	adds	r7, #16
 800311c:	46bd      	mov	sp, r7
 800311e:	bd80      	pop	{r7, pc}

08003120 <HAL_NVIC_SetPendingIRQ>:
 8003120:	b580      	push	{r7, lr}
 8003122:	b082      	sub	sp, #8
 8003124:	af00      	add	r7, sp, #0
 8003126:	4603      	mov	r3, r0
 8003128:	80fb      	strh	r3, [r7, #6]
 800312a:	f9b7 3006 	ldrsh.w	r3, [r7, #6]
 800312e:	4618      	mov	r0, r3
 8003130:	f7ff fe64 	bl	8002dfc <__NVIC_SetPendingIRQ>
 8003134:	bf00      	nop
 8003136:	3708      	adds	r7, #8
 8003138:	46bd      	mov	sp, r7
 800313a:	bd80      	pop	{r7, pc}

0800313c <HAL_NVIC_GetPendingIRQ>:
 800313c:	b580      	push	{r7, lr}
 800313e:	b082      	sub	sp, #8
 8003140:	af00      	add	r7, sp, #0
 8003142:	4603      	mov	r3, r0
 8003144:	80fb      	strh	r3, [r7, #6]
 8003146:	f9b7 3006 	ldrsh.w	r3, [r7, #6]
 800314a:	4618      	mov	r0, r3
 800314c:	f7ff fe34 	bl	8002db8 <__NVIC_GetPendingIRQ>
 8003150:	4603      	mov	r3, r0
 8003152:	4618      	mov	r0, r3
 8003154:	3708      	adds	r7, #8
 8003156:	46bd      	mov	sp, r7
 8003158:	bd80      	pop	{r7, pc}

0800315a <HAL_NVIC_ClearPendingIRQ>:
 800315a:	b580      	push	{r7, lr}
 800315c:	b082      	sub	sp, #8
 800315e:	af00      	add	r7, sp, #0
 8003160:	4603      	mov	r3, r0
 8003162:	80fb      	strh	r3, [r7, #6]
 8003164:	f9b7 3006 	ldrsh.w	r3, [r7, #6]
 8003168:	4618      	mov	r0, r3
 800316a:	f7ff fe65 	bl	8002e38 <__NVIC_ClearPendingIRQ>
 800316e:	bf00      	nop
 8003170:	3708      	adds	r7, #8
 8003172:	46bd      	mov	sp, r7
 8003174:	bd80      	pop	{r7, pc}

08003176 <HAL_NVIC_GetActive>:
 8003176:	b580      	push	{r7, lr}
 8003178:	b082      	sub	sp, #8
 800317a:	af00      	add	r7, sp, #0
 800317c:	4603      	mov	r3, r0
 800317e:	80fb      	strh	r3, [r7, #6]
 8003180:	f9b7 3006 	ldrsh.w	r3, [r7, #6]
 8003184:	4618      	mov	r0, r3
 8003186:	f7ff fe75 	bl	8002e74 <__NVIC_GetActive>
 800318a:	4603      	mov	r3, r0
 800318c:	4618      	mov	r0, r3
 800318e:	3708      	adds	r7, #8
 8003190:	46bd      	mov	sp, r7
 8003192:	bd80      	pop	{r7, pc}

08003194 <HAL_SYSTICK_Config>:
 8003194:	b480      	push	{r7}
 8003196:	b083      	sub	sp, #12
 8003198:	af00      	add	r7, sp, #0
 800319a:	6078      	str	r0, [r7, #4]
 800319c:	687b      	ldr	r3, [r7, #4]
 800319e:	3b01      	subs	r3, #1
 80031a0:	f1b3 7f80 	cmp.w	r3, #16777216	@ 0x1000000
 80031a4:	d301      	bcc.n	80031aa <HAL_SYSTICK_Config+0x16>
 80031a6:	2301      	movs	r3, #1
 80031a8:	e00d      	b.n	80031c6 <HAL_SYSTICK_Config+0x32>
 80031aa:	4a0a      	ldr	r2, [pc, #40]	@ (80031d4 <HAL_SYSTICK_Config+0x40>)
 80031ac:	687b      	ldr	r3, [r7, #4]
 80031ae:	3b01      	subs	r3, #1
 80031b0:	6053      	str	r3, [r2, #4]
 80031b2:	4b08      	ldr	r3, [pc, #32]	@ (80031d4 <HAL_SYSTICK_Config+0x40>)
 80031b4:	2200      	movs	r2, #0
 80031b6:	609a      	str	r2, [r3, #8]
 80031b8:	4b06      	ldr	r3, [pc, #24]	@ (80031d4 <HAL_SYSTICK_Config+0x40>)
 80031ba:	681b      	ldr	r3, [r3, #0]
 80031bc:	4a05      	ldr	r2, [pc, #20]	@ (80031d4 <HAL_SYSTICK_Config+0x40>)
 80031be:	f043 0303 	orr.w	r3, r3, #3
 80031c2:	6013      	str	r3, [r2, #0]
 80031c4:	2300      	movs	r3, #0
 80031c6:	4618      	mov	r0, r3
 80031c8:	370c      	adds	r7, #12
 80031ca:	46bd      	mov	sp, r7
 80031cc:	f85d 7b04 	ldr.w	r7, [sp], #4
 80031d0:	4770      	bx	lr
 80031d2:	bf00      	nop
 80031d4:	e000e010 	.word	0xe000e010

080031d8 <HAL_SYSTICK_CLKSourceConfig>:
 80031d8:	b480      	push	{r7}
 80031da:	b083      	sub	sp, #12
 80031dc:	af00      	add	r7, sp, #0
 80031de:	6078      	str	r0, [r7, #4]
 80031e0:	687b      	ldr	r3, [r7, #4]
 80031e2:	2b04      	cmp	r3, #4
 80031e4:	d844      	bhi.n	8003270 <HAL_SYSTICK_CLKSourceConfig+0x98>
 80031e6:	a201      	add	r2, pc, #4	@ (adr r2, 80031ec <HAL_SYSTICK_CLKSourceConfig+0x14>)
 80031e8:	f852 f023 	ldr.w	pc, [r2, r3, lsl #2]
 80031ec:	0800320f 	.word	0x0800320f
 80031f0:	0800322d 	.word	0x0800322d
 80031f4:	0800324f 	.word	0x0800324f
 80031f8:	08003271 	.word	0x08003271
 80031fc:	08003201 	.word	0x08003201
 8003200:	4b1f      	ldr	r3, [pc, #124]	@ (8003280 <HAL_SYSTICK_CLKSourceConfig+0xa8>)
 8003202:	681b      	ldr	r3, [r3, #0]
 8003204:	4a1e      	ldr	r2, [pc, #120]	@ (8003280 <HAL_SYSTICK_CLKSourceConfig+0xa8>)
 8003206:	f043 0304 	orr.w	r3, r3, #4
 800320a:	6013      	str	r3, [r2, #0]
 800320c:	e031      	b.n	8003272 <HAL_SYSTICK_CLKSourceConfig+0x9a>
 800320e:	4b1c      	ldr	r3, [pc, #112]	@ (8003280 <HAL_SYSTICK_CLKSourceConfig+0xa8>)
 8003210:	681b      	ldr	r3, [r3, #0]
 8003212:	4a1b      	ldr	r2, [pc, #108]	@ (8003280 <HAL_SYSTICK_CLKSourceConfig+0xa8>)
 8003214:	f023 0304 	bic.w	r3, r3, #4
 8003218:	6013      	str	r3, [r2, #0]
 800321a:	4b1a      	ldr	r3, [pc, #104]	@ (8003284 <HAL_SYSTICK_CLKSourceConfig+0xac>)
 800321c:	f8d3 30e4 	ldr.w	r3, [r3, #228]	@ 0xe4
 8003220:	4a18      	ldr	r2, [pc, #96]	@ (8003284 <HAL_SYSTICK_CLKSourceConfig+0xac>)
 8003222:	f023 030c 	bic.w	r3, r3, #12
 8003226:	f8c2 30e4 	str.w	r3, [r2, #228]	@ 0xe4
 800322a:	e022      	b.n	8003272 <HAL_SYSTICK_CLKSourceConfig+0x9a>
 800322c:	4b14      	ldr	r3, [pc, #80]	@ (8003280 <HAL_SYSTICK_CLKSourceConfig+0xa8>)
 800322e:	681b      	ldr	r3, [r3, #0]
 8003230:	4a13      	ldr	r2, [pc, #76]	@ (8003280 <HAL_SYSTICK_CLKSourceConfig+0xa8>)
 8003232:	f023 0304 	bic.w	r3, r3, #4
 8003236:	6013      	str	r3, [r2, #0]
 8003238:	4b12      	ldr	r3, [pc, #72]	@ (8003284 <HAL_SYSTICK_CLKSourceConfig+0xac>)
 800323a:	f8d3 30e4 	ldr.w	r3, [r3, #228]	@ 0xe4
 800323e:	f023 030c 	bic.w	r3, r3, #12
 8003242:	4a10      	ldr	r2, [pc, #64]	@ (8003284 <HAL_SYSTICK_CLKSourceConfig+0xac>)
 8003244:	f043 0304 	orr.w	r3, r3, #4
 8003248:	f8c2 30e4 	str.w	r3, [r2, #228]	@ 0xe4
 800324c:	e011      	b.n	8003272 <HAL_SYSTICK_CLKSourceConfig+0x9a>
 800324e:	4b0c      	ldr	r3, [pc, #48]	@ (8003280 <HAL_SYSTICK_CLKSourceConfig+0xa8>)
 8003250:	681b      	ldr	r3, [r3, #0]
 8003252:	4a0b      	ldr	r2, [pc, #44]	@ (8003280 <HAL_SYSTICK_CLKSourceConfig+0xa8>)
 8003254:	f023 0304 	bic.w	r3, r3, #4
 8003258:	6013      	str	r3, [r2, #0]
 800325a:	4b0a      	ldr	r3, [pc, #40]	@ (8003284 <HAL_SYSTICK_CLKSourceConfig+0xac>)
 800325c:	f8d3 30e4 	ldr.w	r3, [r3, #228]	@ 0xe4
 8003260:	f023 030c 	bic.w	r3, r3, #12
 8003264:	4a07      	ldr	r2, [pc, #28]	@ (8003284 <HAL_SYSTICK_CLKSourceConfig+0xac>)
 8003266:	f043 0308 	orr.w	r3, r3, #8
 800326a:	f8c2 30e4 	str.w	r3, [r2, #228]	@ 0xe4
 800326e:	e000      	b.n	8003272 <HAL_SYSTICK_CLKSourceConfig+0x9a>
 8003270:	bf00      	nop
 8003272:	bf00      	nop
 8003274:	370c      	adds	r7, #12
 8003276:	46bd      	mov	sp, r7
 8003278:	f85d 7b04 	ldr.w	r7, [sp], #4
 800327c:	4770      	bx	lr
 800327e:	bf00      	nop
 8003280:	e000e010 	.word	0xe000e010
 8003284:	44020c00 	.word	0x44020c00

08003288 <HAL_SYSTICK_GetCLKSourceConfig>:
 8003288:	b480      	push	{r7}
 800328a:	b083      	sub	sp, #12
 800328c:	af00      	add	r7, sp, #0
 800328e:	4b17      	ldr	r3, [pc, #92]	@ (80032ec <HAL_SYSTICK_GetCLKSourceConfig+0x64>)
 8003290:	681b      	ldr	r3, [r3, #0]
 8003292:	f003 0304 	and.w	r3, r3, #4
 8003296:	2b00      	cmp	r3, #0
 8003298:	d002      	beq.n	80032a0 <HAL_SYSTICK_GetCLKSourceConfig+0x18>
 800329a:	2304      	movs	r3, #4
 800329c:	607b      	str	r3, [r7, #4]
 800329e:	e01e      	b.n	80032de <HAL_SYSTICK_GetCLKSourceConfig+0x56>
 80032a0:	4b13      	ldr	r3, [pc, #76]	@ (80032f0 <HAL_SYSTICK_GetCLKSourceConfig+0x68>)
 80032a2:	f8d3 30e4 	ldr.w	r3, [r3, #228]	@ 0xe4
 80032a6:	f003 030c 	and.w	r3, r3, #12
 80032aa:	603b      	str	r3, [r7, #0]
 80032ac:	683b      	ldr	r3, [r7, #0]
 80032ae:	2b08      	cmp	r3, #8
 80032b0:	d00f      	beq.n	80032d2 <HAL_SYSTICK_GetCLKSourceConfig+0x4a>
 80032b2:	683b      	ldr	r3, [r7, #0]
 80032b4:	2b08      	cmp	r3, #8
 80032b6:	d80f      	bhi.n	80032d8 <HAL_SYSTICK_GetCLKSourceConfig+0x50>
 80032b8:	683b      	ldr	r3, [r7, #0]
 80032ba:	2b00      	cmp	r3, #0
 80032bc:	d003      	beq.n	80032c6 <HAL_SYSTICK_GetCLKSourceConfig+0x3e>
 80032be:	683b      	ldr	r3, [r7, #0]
 80032c0:	2b04      	cmp	r3, #4
 80032c2:	d003      	beq.n	80032cc <HAL_SYSTICK_GetCLKSourceConfig+0x44>
 80032c4:	e008      	b.n	80032d8 <HAL_SYSTICK_GetCLKSourceConfig+0x50>
 80032c6:	2300      	movs	r3, #0
 80032c8:	607b      	str	r3, [r7, #4]
 80032ca:	e008      	b.n	80032de <HAL_SYSTICK_GetCLKSourceConfig+0x56>
 80032cc:	2301      	movs	r3, #1
 80032ce:	607b      	str	r3, [r7, #4]
 80032d0:	e005      	b.n	80032de <HAL_SYSTICK_GetCLKSourceConfig+0x56>
 80032d2:	2302      	movs	r3, #2
 80032d4:	607b      	str	r3, [r7, #4]
 80032d6:	e002      	b.n	80032de <HAL_SYSTICK_GetCLKSourceConfig+0x56>
 80032d8:	2300      	movs	r3, #0
 80032da:	607b      	str	r3, [r7, #4]
 80032dc:	bf00      	nop
 80032de:	687b      	ldr	r3, [r7, #4]
 80032e0:	4618      	mov	r0, r3
 80032e2:	370c      	adds	r7, #12
 80032e4:	46bd      	mov	sp, r7
 80032e6:	f85d 7b04 	ldr.w	r7, [sp], #4
 80032ea:	4770      	bx	lr
 80032ec:	e000e010 	.word	0xe000e010
 80032f0:	44020c00 	.word	0x44020c00

080032f4 <HAL_SYSTICK_IRQHandler>:
 80032f4:	b580      	push	{r7, lr}
 80032f6:	af00      	add	r7, sp, #0
 80032f8:	f000 f802 	bl	8003300 <HAL_SYSTICK_Callback>
 80032fc:	bf00      	nop
 80032fe:	bd80      	pop	{r7, pc}

08003300 <HAL_SYSTICK_Callback>:
 8003300:	b480      	push	{r7}
 8003302:	af00      	add	r7, sp, #0
 8003304:	bf00      	nop
 8003306:	46bd      	mov	sp, r7
 8003308:	f85d 7b04 	ldr.w	r7, [sp], #4
 800330c:	4770      	bx	lr

0800330e <HAL_MPU_Enable>:
 800330e:	b480      	push	{r7}
 8003310:	b083      	sub	sp, #12
 8003312:	af00      	add	r7, sp, #0
 8003314:	6078      	str	r0, [r7, #4]
 8003316:	f3bf 8f5f 	dmb	sy
 800331a:	bf00      	nop
 800331c:	4a0b      	ldr	r2, [pc, #44]	@ (800334c <HAL_MPU_Enable+0x3e>)
 800331e:	687b      	ldr	r3, [r7, #4]
 8003320:	f043 0301 	orr.w	r3, r3, #1
 8003324:	6053      	str	r3, [r2, #4]
 8003326:	4b0a      	ldr	r3, [pc, #40]	@ (8003350 <HAL_MPU_Enable+0x42>)
 8003328:	6a5b      	ldr	r3, [r3, #36]	@ 0x24
 800332a:	4a09      	ldr	r2, [pc, #36]	@ (8003350 <HAL_MPU_Enable+0x42>)
 800332c:	f443 3380 	orr.w	r3, r3, #65536	@ 0x10000
 8003330:	6253      	str	r3, [r2, #36]	@ 0x24
 8003332:	f3bf 8f4f 	dsb	sy
 8003336:	bf00      	nop
 8003338:	f3bf 8f6f 	isb	sy
 800333c:	bf00      	nop
 800333e:	bf00      	nop
 8003340:	370c      	adds	r7, #12
 8003342:	46bd      	mov	sp, r7
 8003344:	f85d 7b04 	ldr.w	r7, [sp], #4
 8003348:	4770      	bx	lr
 800334a:	bf00      	nop
 800334c:	e000ed90 	.word	0xe000ed90
 8003350:	e000ed00 	.word	0xe000ed00

08003354 <HAL_MPU_Disable>:
 8003354:	b480      	push	{r7}
 8003356:	af00      	add	r7, sp, #0
 8003358:	f3bf 8f5f 	dmb	sy
 800335c:	bf00      	nop
 800335e:	4b0b      	ldr	r3, [pc, #44]	@ (800338c <HAL_MPU_Disable+0x38>)
 8003360:	6a5b      	ldr	r3, [r3, #36]	@ 0x24
 8003362:	4a0a      	ldr	r2, [pc, #40]	@ (800338c <HAL_MPU_Disable+0x38>)
 8003364:	f423 3380 	bic.w	r3, r3, #65536	@ 0x10000
 8003368:	6253      	str	r3, [r2, #36]	@ 0x24
 800336a:	4b09      	ldr	r3, [pc, #36]	@ (8003390 <HAL_MPU_Disable+0x3c>)
 800336c:	685b      	ldr	r3, [r3, #4]
 800336e:	4a08      	ldr	r2, [pc, #32]	@ (8003390 <HAL_MPU_Disable+0x3c>)
 8003370:	f023 0301 	bic.w	r3, r3, #1
 8003374:	6053      	str	r3, [r2, #4]
 8003376:	f3bf 8f4f 	dsb	sy
 800337a:	bf00      	nop
 800337c:	f3bf 8f6f 	isb	sy
 8003380:	bf00      	nop
 8003382:	bf00      	nop
 8003384:	46bd      	mov	sp, r7
 8003386:	f85d 7b04 	ldr.w	r7, [sp], #4
 800338a:	4770      	bx	lr
 800338c:	e000ed00 	.word	0xe000ed00
 8003390:	e000ed90 	.word	0xe000ed90

08003394 <HAL_MPU_EnableRegion>:
 8003394:	b480      	push	{r7}
 8003396:	b083      	sub	sp, #12
 8003398:	af00      	add	r7, sp, #0
 800339a:	6078      	str	r0, [r7, #4]
 800339c:	4a07      	ldr	r2, [pc, #28]	@ (80033bc <HAL_MPU_EnableRegion+0x28>)
 800339e:	687b      	ldr	r3, [r7, #4]
 80033a0:	6093      	str	r3, [r2, #8]
 80033a2:	4b06      	ldr	r3, [pc, #24]	@ (80033bc <HAL_MPU_EnableRegion+0x28>)
 80033a4:	691b      	ldr	r3, [r3, #16]
 80033a6:	4a05      	ldr	r2, [pc, #20]	@ (80033bc <HAL_MPU_EnableRegion+0x28>)
 80033a8:	f043 0301 	orr.w	r3, r3, #1
 80033ac:	6113      	str	r3, [r2, #16]
 80033ae:	bf00      	nop
 80033b0:	370c      	adds	r7, #12
 80033b2:	46bd      	mov	sp, r7
 80033b4:	f85d 7b04 	ldr.w	r7, [sp], #4
 80033b8:	4770      	bx	lr
 80033ba:	bf00      	nop
 80033bc:	e000ed90 	.word	0xe000ed90

080033c0 <HAL_MPU_DisableRegion>:
 80033c0:	b480      	push	{r7}
 80033c2:	b083      	sub	sp, #12
 80033c4:	af00      	add	r7, sp, #0
 80033c6:	6078      	str	r0, [r7, #4]
 80033c8:	4a07      	ldr	r2, [pc, #28]	@ (80033e8 <HAL_MPU_DisableRegion+0x28>)
 80033ca:	687b      	ldr	r3, [r7, #4]
 80033cc:	6093      	str	r3, [r2, #8]
 80033ce:	4b06      	ldr	r3, [pc, #24]	@ (80033e8 <HAL_MPU_DisableRegion+0x28>)
 80033d0:	691b      	ldr	r3, [r3, #16]
 80033d2:	4a05      	ldr	r2, [pc, #20]	@ (80033e8 <HAL_MPU_DisableRegion+0x28>)
 80033d4:	f023 0301 	bic.w	r3, r3, #1
 80033d8:	6113      	str	r3, [r2, #16]
 80033da:	bf00      	nop
 80033dc:	370c      	adds	r7, #12
 80033de:	46bd      	mov	sp, r7
 80033e0:	f85d 7b04 	ldr.w	r7, [sp], #4
 80033e4:	4770      	bx	lr
 80033e6:	bf00      	nop
 80033e8:	e000ed90 	.word	0xe000ed90

080033ec <HAL_MPU_ConfigRegion>:
 80033ec:	b580      	push	{r7, lr}
 80033ee:	b082      	sub	sp, #8
 80033f0:	af00      	add	r7, sp, #0
 80033f2:	6078      	str	r0, [r7, #4]
 80033f4:	6879      	ldr	r1, [r7, #4]
 80033f6:	4803      	ldr	r0, [pc, #12]	@ (8003404 <HAL_MPU_ConfigRegion+0x18>)
 80033f8:	f000 f814 	bl	8003424 <MPU_ConfigRegion>
 80033fc:	bf00      	nop
 80033fe:	3708      	adds	r7, #8
 8003400:	46bd      	mov	sp, r7
 8003402:	bd80      	pop	{r7, pc}
 8003404:	e000ed90 	.word	0xe000ed90

08003408 <HAL_MPU_ConfigMemoryAttributes>:
 8003408:	b580      	push	{r7, lr}
 800340a:	b082      	sub	sp, #8
 800340c:	af00      	add	r7, sp, #0
 800340e:	6078      	str	r0, [r7, #4]
 8003410:	6879      	ldr	r1, [r7, #4]
 8003412:	4803      	ldr	r0, [pc, #12]	@ (8003420 <HAL_MPU_ConfigMemoryAttributes+0x18>)
 8003414:	f000 f83d 	bl	8003492 <MPU_ConfigMemoryAttributes>
 8003418:	bf00      	nop
 800341a:	3708      	adds	r7, #8
 800341c:	46bd      	mov	sp, r7
 800341e:	bd80      	pop	{r7, pc}
 8003420:	e000ed90 	.word	0xe000ed90

08003424 <MPU_ConfigRegion>:
 8003424:	b480      	push	{r7}
 8003426:	b083      	sub	sp, #12
 8003428:	af00      	add	r7, sp, #0
 800342a:	6078      	str	r0, [r7, #4]
 800342c:	6039      	str	r1, [r7, #0]
 800342e:	f3bf 8f5f 	dmb	sy
 8003432:	bf00      	nop
 8003434:	683b      	ldr	r3, [r7, #0]
 8003436:	785b      	ldrb	r3, [r3, #1]
 8003438:	461a      	mov	r2, r3
 800343a:	687b      	ldr	r3, [r7, #4]
 800343c:	609a      	str	r2, [r3, #8]
 800343e:	687b      	ldr	r3, [r7, #4]
 8003440:	691b      	ldr	r3, [r3, #16]
 8003442:	f023 0201 	bic.w	r2, r3, #1
 8003446:	687b      	ldr	r3, [r7, #4]
 8003448:	611a      	str	r2, [r3, #16]
 800344a:	683b      	ldr	r3, [r7, #0]
 800344c:	685b      	ldr	r3, [r3, #4]
 800344e:	f023 021f 	bic.w	r2, r3, #31
 8003452:	683b      	ldr	r3, [r7, #0]
 8003454:	7bdb      	ldrb	r3, [r3, #15]
 8003456:	00db      	lsls	r3, r3, #3
 8003458:	431a      	orrs	r2, r3
 800345a:	683b      	ldr	r3, [r7, #0]
 800345c:	7b5b      	ldrb	r3, [r3, #13]
 800345e:	005b      	lsls	r3, r3, #1
 8003460:	4313      	orrs	r3, r2
 8003462:	683a      	ldr	r2, [r7, #0]
 8003464:	7b92      	ldrb	r2, [r2, #14]
 8003466:	431a      	orrs	r2, r3
 8003468:	687b      	ldr	r3, [r7, #4]
 800346a:	60da      	str	r2, [r3, #12]
 800346c:	683b      	ldr	r3, [r7, #0]
 800346e:	689b      	ldr	r3, [r3, #8]
 8003470:	f023 021f 	bic.w	r2, r3, #31
 8003474:	683b      	ldr	r3, [r7, #0]
 8003476:	7b1b      	ldrb	r3, [r3, #12]
 8003478:	005b      	lsls	r3, r3, #1
 800347a:	4313      	orrs	r3, r2
 800347c:	683a      	ldr	r2, [r7, #0]
 800347e:	7812      	ldrb	r2, [r2, #0]
 8003480:	431a      	orrs	r2, r3
 8003482:	687b      	ldr	r3, [r7, #4]
 8003484:	611a      	str	r2, [r3, #16]
 8003486:	bf00      	nop
 8003488:	370c      	adds	r7, #12
 800348a:	46bd      	mov	sp, r7
 800348c:	f85d 7b04 	ldr.w	r7, [sp], #4
 8003490:	4770      	bx	lr

08003492 <MPU_ConfigMemoryAttributes>:
 8003492:	b480      	push	{r7}
 8003494:	b087      	sub	sp, #28
 8003496:	af00      	add	r7, sp, #0
 8003498:	6078      	str	r0, [r7, #4]
 800349a:	6039      	str	r1, [r7, #0]
 800349c:	f3bf 8f5f 	dmb	sy
 80034a0:	bf00      	nop
 80034a2:	683b      	ldr	r3, [r7, #0]
 80034a4:	781b      	ldrb	r3, [r3, #0]
 80034a6:	2b03      	cmp	r3, #3
 80034a8:	d806      	bhi.n	80034b8 <MPU_ConfigMemoryAttributes+0x26>
 80034aa:	687b      	ldr	r3, [r7, #4]
 80034ac:	3330      	adds	r3, #48	@ 0x30
 80034ae:	617b      	str	r3, [r7, #20]
 80034b0:	683b      	ldr	r3, [r7, #0]
 80034b2:	781b      	ldrb	r3, [r3, #0]
 80034b4:	613b      	str	r3, [r7, #16]
 80034b6:	e006      	b.n	80034c6 <MPU_ConfigMemoryAttributes+0x34>
 80034b8:	687b      	ldr	r3, [r7, #4]
 80034ba:	3334      	adds	r3, #52	@ 0x34
 80034bc:	617b      	str	r3, [r7, #20]
 80034be:	683b      	ldr	r3, [r7, #0]
 80034c0:	781b      	ldrb	r3, [r3, #0]
 80034c2:	3b04      	subs	r3, #4
 80034c4:	613b      	str	r3, [r7, #16]
 80034c6:	697b      	ldr	r3, [r7, #20]
 80034c8:	681b      	ldr	r3, [r3, #0]
 80034ca:	60fb      	str	r3, [r7, #12]
 80034cc:	693b      	ldr	r3, [r7, #16]
 80034ce:	00db      	lsls	r3, r3, #3
 80034d0:	22ff      	movs	r2, #255	@ 0xff
 80034d2:	fa02 f303 	lsl.w	r3, r2, r3
 80034d6:	43db      	mvns	r3, r3
 80034d8:	68fa      	ldr	r2, [r7, #12]
 80034da:	4013      	ands	r3, r2
 80034dc:	60fb      	str	r3, [r7, #12]
 80034de:	683b      	ldr	r3, [r7, #0]
 80034e0:	785b      	ldrb	r3, [r3, #1]
 80034e2:	461a      	mov	r2, r3
 80034e4:	693b      	ldr	r3, [r7, #16]
 80034e6:	00db      	lsls	r3, r3, #3
 80034e8:	409a      	lsls	r2, r3
 80034ea:	68fb      	ldr	r3, [r7, #12]
 80034ec:	431a      	orrs	r2, r3
 80034ee:	697b      	ldr	r3, [r7, #20]
 80034f0:	601a      	str	r2, [r3, #0]
 80034f2:	bf00      	nop
 80034f4:	371c      	adds	r7, #28
 80034f6:	46bd      	mov	sp, r7
 80034f8:	f85d 7b04 	ldr.w	r7, [sp], #4
 80034fc:	4770      	bx	lr
 80034fe:	bf00      	nop

08003500 <Reset_Handler>:
 8003500:	480d      	ldr	r0, [pc, #52]	@ (8003538 <LoopForever+0x2>)
 8003502:	4685      	mov	sp, r0
 8003504:	f7fc ffd0 	bl	80004a8 <SystemInit>
 8003508:	480c      	ldr	r0, [pc, #48]	@ (800353c <LoopForever+0x6>)
 800350a:	490d      	ldr	r1, [pc, #52]	@ (8003540 <LoopForever+0xa>)
 800350c:	4a0d      	ldr	r2, [pc, #52]	@ (8003544 <LoopForever+0xe>)
 800350e:	2300      	movs	r3, #0
 8003510:	e002      	b.n	8003518 <LoopCopyDataInit>

08003512 <CopyDataInit>:
 8003512:	58d4      	ldr	r4, [r2, r3]
 8003514:	50c4      	str	r4, [r0, r3]
 8003516:	3304      	adds	r3, #4

08003518 <LoopCopyDataInit>:
 8003518:	18c4      	adds	r4, r0, r3
 800351a:	428c      	cmp	r4, r1
 800351c:	d3f9      	bcc.n	8003512 <CopyDataInit>
 800351e:	4a0a      	ldr	r2, [pc, #40]	@ (8003548 <LoopForever+0x12>)
 8003520:	4c0a      	ldr	r4, [pc, #40]	@ (800354c <LoopForever+0x16>)
 8003522:	2300      	movs	r3, #0
 8003524:	e001      	b.n	800352a <LoopFillZerobss>

08003526 <FillZerobss>:
 8003526:	6013      	str	r3, [r2, #0]
 8003528:	3204      	adds	r2, #4

0800352a <LoopFillZerobss>:
 800352a:	42a2      	cmp	r2, r4
 800352c:	d3fb      	bcc.n	8003526 <FillZerobss>
 800352e:	f7fc ffb3 	bl	8000498 <__libc_init_array>
 8003532:	f7fc fefb 	bl	800032c <main>

08003536 <LoopForever>:
 8003536:	e7fe      	b.n	8003536 <LoopForever>
 8003538:	200a0000 	.word	0x200a0000
 800353c:	20000000 	.word	0x20000000
 8003540:	2000000c 	.word	0x2000000c
 8003544:	0800363c 	.word	0x0800363c
 8003548:	2000000c 	.word	0x2000000c
 800354c:	20000010 	.word	0x20000010

08003550 <ADC1_IRQHandler>:
 8003550:	e7fe      	b.n	8003550 <ADC1_IRQHandler>
	...
